GAS LISTING C:\Users\Jesper\AppData\Local\Temp\ccbCAWhk.s 			page 1


   1              		.file	"gd32v_mpu6500_if.c"
   2              		.option nopic
   3              		.attribute arch, "rv32i2p0_m2p0_a2p0_c2p0"
   4              		.attribute unaligned_access, 0
   5              		.attribute stack_align, 16
   6              		.text
   7              	.Ltext0:
   8              		.cfi_sections	.debug_frame
   9              		.globl	__floatundidf
  10              		.globl	__floatunsidf
  11              		.globl	__divdf3
  12              		.globl	__floatsidf
  13              		.globl	__muldf3
  14              		.globl	__ltdf2
  15              		.section	.text.mpu_delay,"ax",@progbits
  16              		.align	1
  17              		.globl	mpu_delay
  19              	mpu_delay:
  20              	.LFB8:
  21              		.file 1 "lib/mpu/src/gd32v_mpu6500_if.c"
   1:lib/mpu/src/gd32v_mpu6500_if.c **** #include "gd32v_mpu6500_if.h"
   2:lib/mpu/src/gd32v_mpu6500_if.c **** #include "mpu6500_driver.h"
   3:lib/mpu/src/gd32v_mpu6500_if.c **** #include "gd32vf103.h"
   4:lib/mpu/src/gd32v_mpu6500_if.c **** #include "dma.h"
   5:lib/mpu/src/gd32v_mpu6500_if.c **** 
   6:lib/mpu/src/gd32v_mpu6500_if.c **** uint32_t i2c_port;
   7:lib/mpu/src/gd32v_mpu6500_if.c **** 
   8:lib/mpu/src/gd32v_mpu6500_if.c **** void mpu6500_install(uint32_t port){
   9:lib/mpu/src/gd32v_mpu6500_if.c **** 	i2c_port = port;
  10:lib/mpu/src/gd32v_mpu6500_if.c **** 	//i2c_master_init(i2c_port);
  11:lib/mpu/src/gd32v_mpu6500_if.c ****     i2c_master_init_400k(i2c_port);
  12:lib/mpu/src/gd32v_mpu6500_if.c **** 	mpu6500_init(&i2c_master_read_register, &i2c_master_write_register, &mpu_delay, (void*)&i2c_port);
  13:lib/mpu/src/gd32v_mpu6500_if.c **** }
  14:lib/mpu/src/gd32v_mpu6500_if.c **** 
  15:lib/mpu/src/gd32v_mpu6500_if.c **** void i2c_master_init(uint32_t port){
  16:lib/mpu/src/gd32v_mpu6500_if.c ****     i2c_clock_config(port, 100000,I2C_DTCY_2 );
  17:lib/mpu/src/gd32v_mpu6500_if.c ****     i2c_enable(port);
  18:lib/mpu/src/gd32v_mpu6500_if.c **** }
  19:lib/mpu/src/gd32v_mpu6500_if.c **** 
  20:lib/mpu/src/gd32v_mpu6500_if.c **** void i2c_master_init_400k(uint32_t port){
  21:lib/mpu/src/gd32v_mpu6500_if.c ****     i2c_clock_config(port, 400000, I2C_DTCY_16_9);
  22:lib/mpu/src/gd32v_mpu6500_if.c ****     i2c_enable(port);
  23:lib/mpu/src/gd32v_mpu6500_if.c **** }
  24:lib/mpu/src/gd32v_mpu6500_if.c **** 
  25:lib/mpu/src/gd32v_mpu6500_if.c **** void mpu_delay(int millis){
  22              		.loc 1 25 27
  23              		.cfi_startproc
  24              	.LVL0:
  26:lib/mpu/src/gd32v_mpu6500_if.c ****     uint64_t start_mtime, delta_mtime;
  25              		.loc 1 26 5
  27:lib/mpu/src/gd32v_mpu6500_if.c **** 
  28:lib/mpu/src/gd32v_mpu6500_if.c **** 	// Don't start measuruing until we see an mtime tick
  29:lib/mpu/src/gd32v_mpu6500_if.c **** 	uint64_t tmp = get_timer_value();
  26              		.loc 1 29 2
  25:lib/mpu/src/gd32v_mpu6500_if.c ****     uint64_t start_mtime, delta_mtime;
  27              		.loc 1 25 27 is_stmt 0
  28 0000 7971     		addi	sp,sp,-48
GAS LISTING C:\Users\Jesper\AppData\Local\Temp\ccbCAWhk.s 			page 2


  29              	.LCFI0:
  30              		.cfi_def_cfa_offset 48
  31 0002 4AD0     		sw	s2,32(sp)
  32 0004 4ECE     		sw	s3,28(sp)
  33 0006 5AC8     		sw	s6,16(sp)
  34 0008 06D6     		sw	ra,44(sp)
  35 000a 22D4     		sw	s0,40(sp)
  36 000c 26D2     		sw	s1,36(sp)
  37 000e 52CC     		sw	s4,24(sp)
  38 0010 56CA     		sw	s5,20(sp)
  39 0012 5EC6     		sw	s7,12(sp)
  40 0014 62C4     		sw	s8,8(sp)
  41 0016 66C2     		sw	s9,4(sp)
  42              		.cfi_offset 18, -16
  43              		.cfi_offset 19, -20
  44              		.cfi_offset 22, -32
  45              		.cfi_offset 1, -4
  46              		.cfi_offset 8, -8
  47              		.cfi_offset 9, -12
  48              		.cfi_offset 20, -24
  49              		.cfi_offset 21, -28
  50              		.cfi_offset 23, -36
  51              		.cfi_offset 24, -40
  52              		.cfi_offset 25, -44
  25:lib/mpu/src/gd32v_mpu6500_if.c ****     uint64_t start_mtime, delta_mtime;
  53              		.loc 1 25 27
  54 0018 2A8B     		mv	s6,a0
  55              		.loc 1 29 17
  56 001a 97000000 		call	get_timer_value
  56      E7800000 
  57              	.LVL1:
  58 0022 AA89     		mv	s3,a0
  59 0024 2E89     		mv	s2,a1
  60              	.LVL2:
  61              	.L2:
  30:lib/mpu/src/gd32v_mpu6500_if.c **** 	do {
  62              		.loc 1 30 2 is_stmt 1 discriminator 1
  31:lib/mpu/src/gd32v_mpu6500_if.c **** 	start_mtime = get_timer_value();
  63              		.loc 1 31 2 discriminator 1
  64              		.loc 1 31 16 is_stmt 0 discriminator 1
  65 0026 97000000 		call	get_timer_value
  65      E7800000 
  66              	.LVL3:
  67 002e AA84     		mv	s1,a0
  68 0030 2E84     		mv	s0,a1
  69              	.LVL4:
  32:lib/mpu/src/gd32v_mpu6500_if.c **** 	} while (start_mtime == tmp);
  70              		.loc 1 32 2 discriminator 1
  71 0032 6394A900 		bne	s3,a0,.L3
  72 0036 E308B9FE 		beq	s2,a1,.L2
  73              	.L3:
  33:lib/mpu/src/gd32v_mpu6500_if.c **** 
  34:lib/mpu/src/gd32v_mpu6500_if.c **** 	do {
  35:lib/mpu/src/gd32v_mpu6500_if.c **** 	delta_mtime = get_timer_value() - start_mtime;
  36:lib/mpu/src/gd32v_mpu6500_if.c **** 	}while(delta_mtime <(SystemCoreClock/4000.0 * millis ));
  74              		.loc 1 36 38 discriminator 1
  75 003a B7070000 		lui	a5,%hi(.LC0)
GAS LISTING C:\Users\Jesper\AppData\Local\Temp\ccbCAWhk.s 			page 3


  76 003e 03A90700 		lw	s2,%lo(.LC0)(a5)
  77              	.LVL5:
  78 0042 83A94700 		lw	s3,%lo(.LC0+4)(a5)
  79 0046 B70B0000 		lui	s7,%hi(SystemCoreClock)
  80              	.L4:
  34:lib/mpu/src/gd32v_mpu6500_if.c **** 	delta_mtime = get_timer_value() - start_mtime;
  81              		.loc 1 34 2 is_stmt 1 discriminator 1
  35:lib/mpu/src/gd32v_mpu6500_if.c **** 	}while(delta_mtime <(SystemCoreClock/4000.0 * millis ));
  82              		.loc 1 35 2 discriminator 1
  35:lib/mpu/src/gd32v_mpu6500_if.c **** 	}while(delta_mtime <(SystemCoreClock/4000.0 * millis ));
  83              		.loc 1 35 16 is_stmt 0 discriminator 1
  84 004a 97000000 		call	get_timer_value
  84      E7800000 
  85              	.LVL6:
  86 0052 AA87     		mv	a5,a0
  35:lib/mpu/src/gd32v_mpu6500_if.c **** 	}while(delta_mtime <(SystemCoreClock/4000.0 * millis ));
  87              		.loc 1 35 14 discriminator 1
  88 0054 058D     		sub	a0,a0,s1
  89              	.LVL7:
  90 0056 B3B7A700 		sgtu	a5,a0,a5
  91              	.LVL8:
  92 005a 818D     		sub	a1,a1,s0
  93              		.loc 1 36 21 discriminator 1
  94 005c 9D8D     		sub	a1,a1,a5
  95 005e 97000000 		call	__floatundidf
  95      E7800000 
  96              	.LVL9:
  97 0066 2A8A     		mv	s4,a0
  98              		.loc 1 36 38 discriminator 1
  99 0068 03A50B00 		lw	a0,%lo(SystemCoreClock)(s7)
 100              		.loc 1 36 21 discriminator 1
 101 006c AE8A     		mv	s5,a1
 102              		.loc 1 36 38 discriminator 1
 103 006e 97000000 		call	__floatunsidf
 103      E7800000 
 104              	.LVL10:
 105 0076 4A86     		mv	a2,s2
 106 0078 CE86     		mv	a3,s3
 107 007a 97000000 		call	__divdf3
 107      E7800000 
 108              	.LVL11:
 109 0082 2A8C     		mv	s8,a0
 110              		.loc 1 36 46 discriminator 1
 111 0084 5A85     		mv	a0,s6
 112              		.loc 1 36 38 discriminator 1
 113 0086 AE8C     		mv	s9,a1
 114              		.loc 1 36 46 discriminator 1
 115 0088 97000000 		call	__floatsidf
 115      E7800000 
 116              	.LVL12:
 117 0090 2A86     		mv	a2,a0
 118 0092 AE86     		mv	a3,a1
 119 0094 6285     		mv	a0,s8
 120 0096 E685     		mv	a1,s9
 121 0098 97000000 		call	__muldf3
 121      E7800000 
 122              	.LVL13:
GAS LISTING C:\Users\Jesper\AppData\Local\Temp\ccbCAWhk.s 			page 4


 123              		.loc 1 36 2 discriminator 1
 124 00a0 2A86     		mv	a2,a0
 125 00a2 AE86     		mv	a3,a1
 126 00a4 5285     		mv	a0,s4
 127 00a6 D685     		mv	a1,s5
 128 00a8 97000000 		call	__ltdf2
 128      E7800000 
 129              	.LVL14:
 130 00b0 E34D05F8 		blt	a0,zero,.L4
  37:lib/mpu/src/gd32v_mpu6500_if.c **** }
 131              		.loc 1 37 1
 132 00b4 B250     		lw	ra,44(sp)
 133              		.cfi_restore 1
 134 00b6 2254     		lw	s0,40(sp)
 135              		.cfi_restore 8
 136              	.LVL15:
 137 00b8 9254     		lw	s1,36(sp)
 138              		.cfi_restore 9
 139 00ba 0259     		lw	s2,32(sp)
 140              		.cfi_restore 18
 141 00bc F249     		lw	s3,28(sp)
 142              		.cfi_restore 19
 143 00be 624A     		lw	s4,24(sp)
 144              		.cfi_restore 20
 145 00c0 D24A     		lw	s5,20(sp)
 146              		.cfi_restore 21
 147 00c2 424B     		lw	s6,16(sp)
 148              		.cfi_restore 22
 149              	.LVL16:
 150 00c4 B24B     		lw	s7,12(sp)
 151              		.cfi_restore 23
 152 00c6 224C     		lw	s8,8(sp)
 153              		.cfi_restore 24
 154 00c8 924C     		lw	s9,4(sp)
 155              		.cfi_restore 25
 156 00ca 4561     		addi	sp,sp,48
 157              	.LCFI1:
 158              		.cfi_def_cfa_offset 0
 159 00cc 8280     		jr	ra
 160              		.cfi_endproc
 161              	.LFE8:
 163              		.section	.text.i2c_master_read_register,"ax",@progbits
 164              		.align	1
 165              		.globl	i2c_master_read_register
 167              	i2c_master_read_register:
 168              	.LFB9:
  38:lib/mpu/src/gd32v_mpu6500_if.c **** 
  39:lib/mpu/src/gd32v_mpu6500_if.c **** void i2c_master_read_register(void* handle, uint8_t addr, uint8_t reg, uint8_t size, uint8_t *data)
 169              		.loc 1 39 100 is_stmt 1
 170              		.cfi_startproc
 171              	.LVL17:
  40:lib/mpu/src/gd32v_mpu6500_if.c ****     int32_t port = *((uint32_t*)handle);
 172              		.loc 1 40 5
  39:lib/mpu/src/gd32v_mpu6500_if.c ****     int32_t port = *((uint32_t*)handle);
 173              		.loc 1 39 100 is_stmt 0
 174 0000 0111     		addi	sp,sp,-32
 175              	.LCFI2:
GAS LISTING C:\Users\Jesper\AppData\Local\Temp\ccbCAWhk.s 			page 5


 176              		.cfi_def_cfa_offset 32
 177 0002 22CC     		sw	s0,24(sp)
 178              		.cfi_offset 8, -8
 179              		.loc 1 40 20
 180 0004 0041     		lw	s0,0(a0)
 181              	.LVL18:
  41:lib/mpu/src/gd32v_mpu6500_if.c ****     
  42:lib/mpu/src/gd32v_mpu6500_if.c ****     /* send a NACK for the next data byte which will be received into the shift register */
  43:lib/mpu/src/gd32v_mpu6500_if.c **** 	//i2c_ackpos_config(port, I2C_ACKPOS_NEXT);
  44:lib/mpu/src/gd32v_mpu6500_if.c ****     //while(i2c_flag_get(port, I2C_FLAG_I2CBSY));
  45:lib/mpu/src/gd32v_mpu6500_if.c **** 
  46:lib/mpu/src/gd32v_mpu6500_if.c ****     /* send a start condition to I2C bus */
  47:lib/mpu/src/gd32v_mpu6500_if.c ****     i2c_start_on_bus(port);
 182              		.loc 1 47 5 is_stmt 1
  39:lib/mpu/src/gd32v_mpu6500_if.c ****     int32_t port = *((uint32_t*)handle);
 183              		.loc 1 39 100 is_stmt 0
 184 0006 26CA     		sw	s1,20(sp)
 185 0008 4AC8     		sw	s2,16(sp)
 186              		.loc 1 47 5
 187 000a 2285     		mv	a0,s0
 188              	.LVL19:
  39:lib/mpu/src/gd32v_mpu6500_if.c ****     int32_t port = *((uint32_t*)handle);
 189              		.loc 1 39 100
 190 000c 4EC6     		sw	s3,12(sp)
 191 000e 52C4     		sw	s4,8(sp)
 192 0010 06CE     		sw	ra,28(sp)
 193              		.cfi_offset 9, -12
 194              		.cfi_offset 18, -16
 195              		.cfi_offset 19, -20
 196              		.cfi_offset 20, -24
 197              		.cfi_offset 1, -4
  39:lib/mpu/src/gd32v_mpu6500_if.c ****     int32_t port = *((uint32_t*)handle);
 198              		.loc 1 39 100
 199 0012 AE84     		mv	s1,a1
 200 0014 328A     		mv	s4,a2
 201 0016 3689     		mv	s2,a3
 202 0018 BA89     		mv	s3,a4
 203              		.loc 1 47 5
 204 001a 97000000 		call	i2c_start_on_bus
 204      E7800000 
 205              	.LVL20:
  48:lib/mpu/src/gd32v_mpu6500_if.c ****     while(!i2c_flag_get(port, I2C_FLAG_SBSEND));
 206              		.loc 1 48 5 is_stmt 1
 207              	.L8:
 208              		.loc 1 48 48 discriminator 1
 209              		.loc 1 48 12 is_stmt 0 discriminator 1
 210 0022 93050050 		li	a1,1280
 211 0026 2285     		mv	a0,s0
 212 0028 97000000 		call	i2c_flag_get
 212      E7800000 
 213              	.LVL21:
 214              		.loc 1 48 10 discriminator 1
 215 0030 6DD9     		beq	a0,zero,.L8
  49:lib/mpu/src/gd32v_mpu6500_if.c **** 
  50:lib/mpu/src/gd32v_mpu6500_if.c ****     /* send slave address to I2C bus */
  51:lib/mpu/src/gd32v_mpu6500_if.c ****     i2c_master_addressing(port, addr << 1, I2C_TRANSMITTER);
 216              		.loc 1 51 5 is_stmt 1
GAS LISTING C:\Users\Jesper\AppData\Local\Temp\ccbCAWhk.s 			page 6


 217              		.loc 1 51 38 is_stmt 0
 218 0032 8604     		slli	s1,s1,1
 219              		.loc 1 51 5
 220 0034 7956     		li	a2,-2
 221 0036 A685     		mv	a1,s1
 222 0038 2285     		mv	a0,s0
 223 003a 97000000 		call	i2c_master_addressing
 223      E7800000 
 224              	.LVL22:
  52:lib/mpu/src/gd32v_mpu6500_if.c ****     /* disable ACK before clearing ADDSEND bit */
  53:lib/mpu/src/gd32v_mpu6500_if.c ****     //i2c_ack_config(port, I2C_ACK_DISABLE);
  54:lib/mpu/src/gd32v_mpu6500_if.c ****     while(!i2c_flag_get(port, I2C_FLAG_ADDSEND));
 225              		.loc 1 54 5 is_stmt 1
 226              	.L9:
 227              		.loc 1 54 49 discriminator 1
 228              		.loc 1 54 12 is_stmt 0 discriminator 1
 229 0042 93051050 		li	a1,1281
 230 0046 2285     		mv	a0,s0
 231 0048 97000000 		call	i2c_flag_get
 231      E7800000 
 232              	.LVL23:
 233              		.loc 1 54 10 discriminator 1
 234 0050 6DD9     		beq	a0,zero,.L9
  55:lib/mpu/src/gd32v_mpu6500_if.c ****     i2c_flag_clear(port, I2C_FLAG_ADDSEND);
 235              		.loc 1 55 5 is_stmt 1
 236 0052 93051050 		li	a1,1281
 237 0056 2285     		mv	a0,s0
 238 0058 97000000 		call	i2c_flag_clear
 238      E7800000 
 239              	.LVL24:
  56:lib/mpu/src/gd32v_mpu6500_if.c ****     while(!i2c_flag_get(port, I2C_FLAG_TBE));
 240              		.loc 1 56 5
 241              	.L10:
 242              		.loc 1 56 45 discriminator 1
 243              		.loc 1 56 12 is_stmt 0 discriminator 1
 244 0060 93057050 		li	a1,1287
 245 0064 2285     		mv	a0,s0
 246 0066 97000000 		call	i2c_flag_get
 246      E7800000 
 247              	.LVL25:
 248              		.loc 1 56 10 discriminator 1
 249 006e 6DD9     		beq	a0,zero,.L10
  57:lib/mpu/src/gd32v_mpu6500_if.c **** 
  58:lib/mpu/src/gd32v_mpu6500_if.c **** 
  59:lib/mpu/src/gd32v_mpu6500_if.c ****     i2c_data_transmit(port, reg);
 250              		.loc 1 59 5 is_stmt 1
 251 0070 D285     		mv	a1,s4
 252 0072 2285     		mv	a0,s0
 253 0074 97000000 		call	i2c_data_transmit
 253      E7800000 
 254              	.LVL26:
  60:lib/mpu/src/gd32v_mpu6500_if.c ****     /* wait until the TBE bit is set */
  61:lib/mpu/src/gd32v_mpu6500_if.c ****     while(!i2c_flag_get(port, I2C_FLAG_TBE));
 255              		.loc 1 61 5
 256              	.L11:
 257              		.loc 1 61 45 discriminator 1
 258              		.loc 1 61 12 is_stmt 0 discriminator 1
GAS LISTING C:\Users\Jesper\AppData\Local\Temp\ccbCAWhk.s 			page 7


 259 007c 93057050 		li	a1,1287
 260 0080 2285     		mv	a0,s0
 261 0082 97000000 		call	i2c_flag_get
 261      E7800000 
 262              	.LVL27:
 263              		.loc 1 61 10 discriminator 1
 264 008a 6DD9     		beq	a0,zero,.L11
  62:lib/mpu/src/gd32v_mpu6500_if.c **** 
  63:lib/mpu/src/gd32v_mpu6500_if.c ****     i2c_start_on_bus(port);
 265              		.loc 1 63 5 is_stmt 1
 266 008c 2285     		mv	a0,s0
 267 008e 97000000 		call	i2c_start_on_bus
 267      E7800000 
 268              	.LVL28:
  64:lib/mpu/src/gd32v_mpu6500_if.c ****     while( ! i2c_flag_get(port, I2C_FLAG_SBSEND) );
 269              		.loc 1 64 5
 270              	.L12:
 271              		.loc 1 64 51 discriminator 1
 272              		.loc 1 64 14 is_stmt 0 discriminator 1
 273 0096 93050050 		li	a1,1280
 274 009a 2285     		mv	a0,s0
 275 009c 97000000 		call	i2c_flag_get
 275      E7800000 
 276              	.LVL29:
 277              		.loc 1 64 10 discriminator 1
 278 00a4 6DD9     		beq	a0,zero,.L12
  65:lib/mpu/src/gd32v_mpu6500_if.c **** 
  66:lib/mpu/src/gd32v_mpu6500_if.c ****     i2c_master_addressing(port, addr << 1, I2C_RECEIVER);
 279              		.loc 1 66 5 is_stmt 1
 280 00a6 0546     		li	a2,1
 281 00a8 A685     		mv	a1,s1
 282 00aa 2285     		mv	a0,s0
 283 00ac 97000000 		call	i2c_master_addressing
 283      E7800000 
 284              	.LVL30:
  67:lib/mpu/src/gd32v_mpu6500_if.c ****     while( ! i2c_flag_get(port, I2C_FLAG_ADDSEND) );
 285              		.loc 1 67 5
 286              	.L13:
 287              		.loc 1 67 52 discriminator 1
 288              		.loc 1 67 14 is_stmt 0 discriminator 1
 289 00b4 93051050 		li	a1,1281
 290 00b8 2285     		mv	a0,s0
 291 00ba 97000000 		call	i2c_flag_get
 291      E7800000 
 292              	.LVL31:
 293              		.loc 1 67 10 discriminator 1
 294 00c2 6DD9     		beq	a0,zero,.L13
  68:lib/mpu/src/gd32v_mpu6500_if.c ****     i2c_flag_clear(port, I2C_FLAG_ADDSEND);
 295              		.loc 1 68 5 is_stmt 1
 296 00c4 93051050 		li	a1,1281
 297 00c8 2285     		mv	a0,s0
 298 00ca 97000000 		call	i2c_flag_clear
 298      E7800000 
 299              	.LVL32:
  69:lib/mpu/src/gd32v_mpu6500_if.c **** 
  70:lib/mpu/src/gd32v_mpu6500_if.c ****     i2c_ack_config(port, I2C_ACK_ENABLE);
 300              		.loc 1 70 5
GAS LISTING C:\Users\Jesper\AppData\Local\Temp\ccbCAWhk.s 			page 8


 301 00d2 8545     		li	a1,1
 302 00d4 2285     		mv	a0,s0
 303 00d6 97000000 		call	i2c_ack_config
 303      E7800000 
 304              	.LVL33:
  71:lib/mpu/src/gd32v_mpu6500_if.c **** 
  72:lib/mpu/src/gd32v_mpu6500_if.c ****     for(int i = 0; i < size; i++) {
 305              		.loc 1 72 5
 306              	.LBB2:
 307              		.loc 1 72 9
 308              		.loc 1 72 13 is_stmt 0
 309 00de 8144     		li	s1,0
  73:lib/mpu/src/gd32v_mpu6500_if.c ****         if(i == size - 1) {
 310              		.loc 1 73 22
 311 00e0 130AF9FF 		addi	s4,s2,-1
 312              	.LVL34:
 313              	.L14:
  72:lib/mpu/src/gd32v_mpu6500_if.c ****         if(i == size - 1) {
 314              		.loc 1 72 5 discriminator 1
 315 00e4 63C32403 		bgt	s2,s1,.L17
 316              	.LBE2:
  74:lib/mpu/src/gd32v_mpu6500_if.c ****             i2c_ack_config(port, I2C_ACK_DISABLE);
  75:lib/mpu/src/gd32v_mpu6500_if.c ****         }
  76:lib/mpu/src/gd32v_mpu6500_if.c ****         while(!i2c_flag_get(port, I2C_FLAG_RBNE));
  77:lib/mpu/src/gd32v_mpu6500_if.c ****         *data++ = i2c_data_receive(port);
  78:lib/mpu/src/gd32v_mpu6500_if.c ****     }
  79:lib/mpu/src/gd32v_mpu6500_if.c **** 
  80:lib/mpu/src/gd32v_mpu6500_if.c ****     i2c_stop_on_bus(port);
 317              		.loc 1 80 5 is_stmt 1
 318 00e8 2285     		mv	a0,s0
 319 00ea 97000000 		call	i2c_stop_on_bus
 319      E7800000 
 320              	.LVL35:
  81:lib/mpu/src/gd32v_mpu6500_if.c ****     while( I2C_CTL0(port) & I2C_CTL0_STOP );
 321              		.loc 1 81 5
 322              	.L18:
 323              		.loc 1 81 44 discriminator 1
 324              		.loc 1 81 12 is_stmt 0 discriminator 1
 325 00f2 1C40     		lw	a5,0(s0)
 326              		.loc 1 81 27 discriminator 1
 327 00f4 93F70720 		andi	a5,a5,512
 328              		.loc 1 81 10 discriminator 1
 329 00f8 EDFF     		bne	a5,zero,.L18
  82:lib/mpu/src/gd32v_mpu6500_if.c **** }
 330              		.loc 1 82 1
 331 00fa F240     		lw	ra,28(sp)
 332              		.cfi_remember_state
 333              		.cfi_restore 1
 334 00fc 6244     		lw	s0,24(sp)
 335              		.cfi_restore 8
 336              	.LVL36:
 337 00fe D244     		lw	s1,20(sp)
 338              		.cfi_restore 9
 339              	.LVL37:
 340 0100 4249     		lw	s2,16(sp)
 341              		.cfi_restore 18
 342 0102 B249     		lw	s3,12(sp)
GAS LISTING C:\Users\Jesper\AppData\Local\Temp\ccbCAWhk.s 			page 9


 343              		.cfi_restore 19
 344 0104 224A     		lw	s4,8(sp)
 345              		.cfi_restore 20
 346 0106 0561     		addi	sp,sp,32
 347              	.LCFI3:
 348              		.cfi_def_cfa_offset 0
 349 0108 8280     		jr	ra
 350              	.LVL38:
 351              	.L17:
 352              	.LCFI4:
 353              		.cfi_restore_state
 354              	.LBB3:
  73:lib/mpu/src/gd32v_mpu6500_if.c ****             i2c_ack_config(port, I2C_ACK_DISABLE);
 355              		.loc 1 73 9 is_stmt 1
  73:lib/mpu/src/gd32v_mpu6500_if.c ****             i2c_ack_config(port, I2C_ACK_DISABLE);
 356              		.loc 1 73 11 is_stmt 0
 357 010a 63189A00 		bne	s4,s1,.L16
  74:lib/mpu/src/gd32v_mpu6500_if.c ****         }
 358              		.loc 1 74 13 is_stmt 1
 359 010e 8145     		li	a1,0
 360 0110 2285     		mv	a0,s0
 361 0112 97000000 		call	i2c_ack_config
 361      E7800000 
 362              	.LVL39:
 363              	.L16:
  76:lib/mpu/src/gd32v_mpu6500_if.c ****         *data++ = i2c_data_receive(port);
 364              		.loc 1 76 50 discriminator 1
  76:lib/mpu/src/gd32v_mpu6500_if.c ****         *data++ = i2c_data_receive(port);
 365              		.loc 1 76 16 is_stmt 0 discriminator 1
 366 011a 93056050 		li	a1,1286
 367 011e 2285     		mv	a0,s0
 368 0120 97000000 		call	i2c_flag_get
 368      E7800000 
 369              	.LVL40:
  76:lib/mpu/src/gd32v_mpu6500_if.c ****         *data++ = i2c_data_receive(port);
 370              		.loc 1 76 14 discriminator 1
 371 0128 6DD9     		beq	a0,zero,.L16
  77:lib/mpu/src/gd32v_mpu6500_if.c ****     }
 372              		.loc 1 77 9 is_stmt 1 discriminator 2
 373              	.LVL41:
  77:lib/mpu/src/gd32v_mpu6500_if.c ****     }
 374              		.loc 1 77 19 is_stmt 0 discriminator 2
 375 012a 2285     		mv	a0,s0
 376 012c 97000000 		call	i2c_data_receive
 376      E7800000 
 377              	.LVL42:
  77:lib/mpu/src/gd32v_mpu6500_if.c ****     }
 378              		.loc 1 77 17 discriminator 2
 379 0134 B3879900 		add	a5,s3,s1
 380 0138 2380A700 		sb	a0,0(a5)
  72:lib/mpu/src/gd32v_mpu6500_if.c ****         if(i == size - 1) {
 381              		.loc 1 72 31 discriminator 2
 382 013c 8504     		addi	s1,s1,1
 383              	.LVL43:
 384 013e 5DB7     		j	.L14
 385              	.LBE3:
 386              		.cfi_endproc
GAS LISTING C:\Users\Jesper\AppData\Local\Temp\ccbCAWhk.s 			page 10


 387              	.LFE9:
 389              		.section	.text.i2c_master_write_register,"ax",@progbits
 390              		.align	1
 391              		.globl	i2c_master_write_register
 393              	i2c_master_write_register:
 394              	.LFB11:
  83:lib/mpu/src/gd32v_mpu6500_if.c **** 
  84:lib/mpu/src/gd32v_mpu6500_if.c **** void i2c_dma_master_read_register(uint32_t handle, uint8_t addr, uint8_t reg){
  85:lib/mpu/src/gd32v_mpu6500_if.c ****     int32_t port = handle;
  86:lib/mpu/src/gd32v_mpu6500_if.c ****     
  87:lib/mpu/src/gd32v_mpu6500_if.c ****     /* send a NACK for the next data byte which will be received into the shift register */
  88:lib/mpu/src/gd32v_mpu6500_if.c **** 	//i2c_ackpos_config(port, I2C_ACKPOS_NEXT);
  89:lib/mpu/src/gd32v_mpu6500_if.c ****     //while(i2c_flag_get(port, I2C_FLAG_I2CBSY));
  90:lib/mpu/src/gd32v_mpu6500_if.c **** 
  91:lib/mpu/src/gd32v_mpu6500_if.c ****     /* send a start condition to I2C bus */
  92:lib/mpu/src/gd32v_mpu6500_if.c ****     i2c_start_on_bus(port);
  93:lib/mpu/src/gd32v_mpu6500_if.c ****     while(!i2c_flag_get(port, I2C_FLAG_SBSEND));
  94:lib/mpu/src/gd32v_mpu6500_if.c **** 
  95:lib/mpu/src/gd32v_mpu6500_if.c ****     /* send slave address to I2C bus */
  96:lib/mpu/src/gd32v_mpu6500_if.c ****     i2c_master_addressing(port, addr << 1, I2C_TRANSMITTER);
  97:lib/mpu/src/gd32v_mpu6500_if.c ****     /* disable ACK before clearing ADDSEND bit */
  98:lib/mpu/src/gd32v_mpu6500_if.c ****     //i2c_ack_config(port, I2C_ACK_DISABLE);
  99:lib/mpu/src/gd32v_mpu6500_if.c ****     while(!i2c_flag_get(port, I2C_FLAG_ADDSEND));
 100:lib/mpu/src/gd32v_mpu6500_if.c ****     i2c_flag_clear(port, I2C_FLAG_ADDSEND);
 101:lib/mpu/src/gd32v_mpu6500_if.c ****     while(!i2c_flag_get(port, I2C_FLAG_TBE));
 102:lib/mpu/src/gd32v_mpu6500_if.c **** 
 103:lib/mpu/src/gd32v_mpu6500_if.c ****     i2c_data_transmit(port, reg);
 104:lib/mpu/src/gd32v_mpu6500_if.c ****     /* wait until the TBE bit is set */
 105:lib/mpu/src/gd32v_mpu6500_if.c ****     while(!i2c_flag_get(port, I2C_FLAG_TBE));
 106:lib/mpu/src/gd32v_mpu6500_if.c **** 
 107:lib/mpu/src/gd32v_mpu6500_if.c ****     i2c_start_on_bus(port);
 108:lib/mpu/src/gd32v_mpu6500_if.c ****     while( ! i2c_flag_get(port, I2C_FLAG_SBSEND) );
 109:lib/mpu/src/gd32v_mpu6500_if.c **** 
 110:lib/mpu/src/gd32v_mpu6500_if.c ****     i2c_master_addressing(port, addr << 1, I2C_RECEIVER);
 111:lib/mpu/src/gd32v_mpu6500_if.c ****     while( ! i2c_flag_get(port, I2C_FLAG_ADDSEND) );
 112:lib/mpu/src/gd32v_mpu6500_if.c ****     i2c_flag_clear(port, I2C_FLAG_ADDSEND);
 113:lib/mpu/src/gd32v_mpu6500_if.c **** 
 114:lib/mpu/src/gd32v_mpu6500_if.c ****     i2c_ack_config(port, I2C_ACK_ENABLE);
 115:lib/mpu/src/gd32v_mpu6500_if.c ****     i2c_dma_enable(port, I2C_DMA_ON);
 116:lib/mpu/src/gd32v_mpu6500_if.c ****     i2c_dma_last_transfer_config(port, I2C_DMALST_ON);
 117:lib/mpu/src/gd32v_mpu6500_if.c ****     dma_config();
 118:lib/mpu/src/gd32v_mpu6500_if.c ****     
 119:lib/mpu/src/gd32v_mpu6500_if.c **** }
 120:lib/mpu/src/gd32v_mpu6500_if.c **** 
 121:lib/mpu/src/gd32v_mpu6500_if.c **** void i2c_master_write_register(void* handle, uint8_t addr, uint8_t reg, uint8_t size, uint8_t *data
 395              		.loc 1 121 101 is_stmt 1
 396              		.cfi_startproc
 397              	.LVL44:
 122:lib/mpu/src/gd32v_mpu6500_if.c ****     int32_t port = *((uint32_t*)handle);
 398              		.loc 1 122 5
 121:lib/mpu/src/gd32v_mpu6500_if.c ****     int32_t port = *((uint32_t*)handle);
 399              		.loc 1 121 101 is_stmt 0
 400 0000 0111     		addi	sp,sp,-32
 401              	.LCFI5:
 402              		.cfi_def_cfa_offset 32
 403 0002 22CC     		sw	s0,24(sp)
 404              		.cfi_offset 8, -8
GAS LISTING C:\Users\Jesper\AppData\Local\Temp\ccbCAWhk.s 			page 11


 405              		.loc 1 122 20
 406 0004 0041     		lw	s0,0(a0)
 407              	.LVL45:
 123:lib/mpu/src/gd32v_mpu6500_if.c ****     
 124:lib/mpu/src/gd32v_mpu6500_if.c ****     /* send a NACK for the next data byte which will be received into the shift register */
 125:lib/mpu/src/gd32v_mpu6500_if.c **** 	//i2c_ackpos_config(port, I2C_ACKPOS_NEXT);
 126:lib/mpu/src/gd32v_mpu6500_if.c ****     while(i2c_flag_get(port, I2C_FLAG_I2CBSY));
 408              		.loc 1 126 5 is_stmt 1
 121:lib/mpu/src/gd32v_mpu6500_if.c ****     int32_t port = *((uint32_t*)handle);
 409              		.loc 1 121 101 is_stmt 0
 410 0006 26CA     		sw	s1,20(sp)
 411 0008 4AC8     		sw	s2,16(sp)
 412 000a 4EC6     		sw	s3,12(sp)
 413 000c 52C4     		sw	s4,8(sp)
 414 000e 06CE     		sw	ra,28(sp)
 415              		.cfi_offset 9, -12
 416              		.cfi_offset 18, -16
 417              		.cfi_offset 19, -20
 418              		.cfi_offset 20, -24
 419              		.cfi_offset 1, -4
 121:lib/mpu/src/gd32v_mpu6500_if.c ****     int32_t port = *((uint32_t*)handle);
 420              		.loc 1 121 101
 421 0010 2E8A     		mv	s4,a1
 422 0012 B284     		mv	s1,a2
 423 0014 3689     		mv	s2,a3
 424 0016 BA89     		mv	s3,a4
 425              	.LVL46:
 426              	.L36:
 427              		.loc 1 126 47 is_stmt 1 discriminator 1
 428              		.loc 1 126 11 is_stmt 0 discriminator 1
 429 0018 93051060 		li	a1,1537
 430 001c 2285     		mv	a0,s0
 431 001e 97000000 		call	i2c_flag_get
 431      E7800000 
 432              	.LVL47:
 433              		.loc 1 126 10 discriminator 1
 434 0026 6DF9     		bne	a0,zero,.L36
 127:lib/mpu/src/gd32v_mpu6500_if.c **** 
 128:lib/mpu/src/gd32v_mpu6500_if.c ****     /* send a start condition to I2C bus */
 129:lib/mpu/src/gd32v_mpu6500_if.c ****     i2c_start_on_bus(port);
 435              		.loc 1 129 5 is_stmt 1
 436 0028 2285     		mv	a0,s0
 437 002a 97000000 		call	i2c_start_on_bus
 437      E7800000 
 438              	.LVL48:
 130:lib/mpu/src/gd32v_mpu6500_if.c ****     while(!i2c_flag_get(port, I2C_FLAG_SBSEND));
 439              		.loc 1 130 5
 440              	.L37:
 441              		.loc 1 130 48 discriminator 1
 442              		.loc 1 130 12 is_stmt 0 discriminator 1
 443 0032 93050050 		li	a1,1280
 444 0036 2285     		mv	a0,s0
 445 0038 97000000 		call	i2c_flag_get
 445      E7800000 
 446              	.LVL49:
 447              		.loc 1 130 10 discriminator 1
 448 0040 6DD9     		beq	a0,zero,.L37
GAS LISTING C:\Users\Jesper\AppData\Local\Temp\ccbCAWhk.s 			page 12


 131:lib/mpu/src/gd32v_mpu6500_if.c **** 
 132:lib/mpu/src/gd32v_mpu6500_if.c ****     /* send slave address to I2C bus */
 133:lib/mpu/src/gd32v_mpu6500_if.c ****     i2c_master_addressing(port, addr << 1, I2C_TRANSMITTER);
 449              		.loc 1 133 5 is_stmt 1
 450 0042 7956     		li	a2,-2
 451 0044 93151A00 		slli	a1,s4,1
 452 0048 2285     		mv	a0,s0
 453 004a 97000000 		call	i2c_master_addressing
 453      E7800000 
 454              	.LVL50:
 134:lib/mpu/src/gd32v_mpu6500_if.c ****     /* disable ACK before clearing ADDSEND bit */
 135:lib/mpu/src/gd32v_mpu6500_if.c ****     //i2c_ack_config(port, I2C_ACK_DISABLE);
 136:lib/mpu/src/gd32v_mpu6500_if.c ****     while(!i2c_flag_get(port, I2C_FLAG_ADDSEND));
 455              		.loc 1 136 5
 456              	.L38:
 457              		.loc 1 136 49 discriminator 1
 458              		.loc 1 136 12 is_stmt 0 discriminator 1
 459 0052 93051050 		li	a1,1281
 460 0056 2285     		mv	a0,s0
 461 0058 97000000 		call	i2c_flag_get
 461      E7800000 
 462              	.LVL51:
 463              		.loc 1 136 10 discriminator 1
 464 0060 6DD9     		beq	a0,zero,.L38
 137:lib/mpu/src/gd32v_mpu6500_if.c ****     i2c_flag_clear(port, I2C_FLAG_ADDSEND);
 465              		.loc 1 137 5 is_stmt 1
 466 0062 93051050 		li	a1,1281
 467 0066 2285     		mv	a0,s0
 468 0068 97000000 		call	i2c_flag_clear
 468      E7800000 
 469              	.LVL52:
 138:lib/mpu/src/gd32v_mpu6500_if.c ****     while(!i2c_flag_get(port, I2C_FLAG_TBE));
 470              		.loc 1 138 5
 471              	.L39:
 472              		.loc 1 138 45 discriminator 1
 473              		.loc 1 138 12 is_stmt 0 discriminator 1
 474 0070 93057050 		li	a1,1287
 475 0074 2285     		mv	a0,s0
 476 0076 97000000 		call	i2c_flag_get
 476      E7800000 
 477              	.LVL53:
 478              		.loc 1 138 10 discriminator 1
 479 007e 6DD9     		beq	a0,zero,.L39
 139:lib/mpu/src/gd32v_mpu6500_if.c **** 
 140:lib/mpu/src/gd32v_mpu6500_if.c ****     i2c_data_transmit(port, reg);
 480              		.loc 1 140 5 is_stmt 1
 481 0080 A685     		mv	a1,s1
 482 0082 2285     		mv	a0,s0
 483 0084 97000000 		call	i2c_data_transmit
 483      E7800000 
 484              	.LVL54:
 141:lib/mpu/src/gd32v_mpu6500_if.c ****         /* wait until the TBE bit is set */
 142:lib/mpu/src/gd32v_mpu6500_if.c ****     while(!i2c_flag_get(port, I2C_FLAG_TBE));
 485              		.loc 1 142 5
 486              	.L40:
 487              		.loc 1 142 45 discriminator 1
 488              		.loc 1 142 12 is_stmt 0 discriminator 1
GAS LISTING C:\Users\Jesper\AppData\Local\Temp\ccbCAWhk.s 			page 13


 489 008c 93057050 		li	a1,1287
 490 0090 2285     		mv	a0,s0
 491 0092 97000000 		call	i2c_flag_get
 491      E7800000 
 492              	.LVL55:
 493              		.loc 1 142 10 discriminator 1
 494 009a 6DD9     		beq	a0,zero,.L40
 495              	.LBB4:
 143:lib/mpu/src/gd32v_mpu6500_if.c **** 
 144:lib/mpu/src/gd32v_mpu6500_if.c ****     for(int i = 0; i < size; i++){
 496              		.loc 1 144 13
 497 009c 8144     		li	s1,0
 498              	.LVL56:
 499              	.L41:
 500              		.loc 1 144 5 discriminator 1
 501 009e 63C32403 		bgt	s2,s1,.L43
 502              	.LBE4:
 145:lib/mpu/src/gd32v_mpu6500_if.c ****         i2c_data_transmit(port, *data++);
 146:lib/mpu/src/gd32v_mpu6500_if.c ****         /* wait until the TBE bit is set */
 147:lib/mpu/src/gd32v_mpu6500_if.c ****         while(!i2c_flag_get(port, I2C_FLAG_TBE));
 148:lib/mpu/src/gd32v_mpu6500_if.c ****     }
 149:lib/mpu/src/gd32v_mpu6500_if.c **** 
 150:lib/mpu/src/gd32v_mpu6500_if.c ****     i2c_stop_on_bus(port);
 503              		.loc 1 150 5 is_stmt 1
 504 00a2 2285     		mv	a0,s0
 505 00a4 97000000 		call	i2c_stop_on_bus
 505      E7800000 
 506              	.LVL57:
 151:lib/mpu/src/gd32v_mpu6500_if.c ****     while( I2C_CTL0(port) & I2C_CTL0_STOP );
 507              		.loc 1 151 5
 508              	.L44:
 509              		.loc 1 151 44 discriminator 1
 510              		.loc 1 151 12 is_stmt 0 discriminator 1
 511 00ac 1C40     		lw	a5,0(s0)
 512              		.loc 1 151 27 discriminator 1
 513 00ae 93F70720 		andi	a5,a5,512
 514              		.loc 1 151 10 discriminator 1
 515 00b2 EDFF     		bne	a5,zero,.L44
 152:lib/mpu/src/gd32v_mpu6500_if.c **** }...
 516              		.loc 1 152 1
 517 00b4 F240     		lw	ra,28(sp)
 518              		.cfi_remember_state
 519              		.cfi_restore 1
 520 00b6 6244     		lw	s0,24(sp)
 521              		.cfi_restore 8
 522              	.LVL58:
 523 00b8 D244     		lw	s1,20(sp)
 524              		.cfi_restore 9
 525              	.LVL59:
 526 00ba 4249     		lw	s2,16(sp)
 527              		.cfi_restore 18
 528 00bc B249     		lw	s3,12(sp)
 529              		.cfi_restore 19
 530 00be 224A     		lw	s4,8(sp)
 531              		.cfi_restore 20
 532 00c0 0561     		addi	sp,sp,32
 533              	.LCFI6:
GAS LISTING C:\Users\Jesper\AppData\Local\Temp\ccbCAWhk.s 			page 14


 534              		.cfi_def_cfa_offset 0
 535 00c2 8280     		jr	ra
 536              	.LVL60:
 537              	.L43:
 538              	.LCFI7:
 539              		.cfi_restore_state
 540              	.LBB5:
 145:lib/mpu/src/gd32v_mpu6500_if.c ****         i2c_data_transmit(port, *data++);
 541              		.loc 1 145 9 is_stmt 1
 542 00c4 B3879900 		add	a5,s3,s1
 543 00c8 83C50700 		lbu	a1,0(a5)
 544 00cc 2285     		mv	a0,s0
 545 00ce 97000000 		call	i2c_data_transmit
 545      E7800000 
 546              	.LVL61:
 147:lib/mpu/src/gd32v_mpu6500_if.c ****         while(!i2c_flag_get(port, I2C_FLAG_TBE));
 547              		.loc 1 147 9
 548              	.L42:
 147:lib/mpu/src/gd32v_mpu6500_if.c ****         while(!i2c_flag_get(port, I2C_FLAG_TBE));
 549              		.loc 1 147 49 discriminator 1
 147:lib/mpu/src/gd32v_mpu6500_if.c ****         while(!i2c_flag_get(port, I2C_FLAG_TBE));
 550              		.loc 1 147 16 is_stmt 0 discriminator 1
 551 00d6 93057050 		li	a1,1287
 552 00da 2285     		mv	a0,s0
 553 00dc 97000000 		call	i2c_flag_get
 553      E7800000 
 554              	.LVL62:
 147:lib/mpu/src/gd32v_mpu6500_if.c ****         while(!i2c_flag_get(port, I2C_FLAG_TBE));
 555              		.loc 1 147 14 discriminator 1
 556 00e4 6DD9     		beq	a0,zero,.L42
 144:lib/mpu/src/gd32v_mpu6500_if.c ****     for(int i = 0; i < size; i++){
 557              		.loc 1 144 31 discriminator 2
 558 00e6 8504     		addi	s1,s1,1
 559              	.LVL63:
 560 00e8 5DBF     		j	.L41
 561              	.LBE5:
 562              		.cfi_endproc
 563              	.LFE11:
 565              		.section	.text.i2c_master_init,"ax",@progbits
 566              		.align	1
 567              		.globl	i2c_master_init
 569              	i2c_master_init:
 570              	.LFB6:
  15:lib/mpu/src/gd32v_mpu6500_if.c **** void i2c_master_init(uint32_t port){
 571              		.loc 1 15 36 is_stmt 1
 572              		.cfi_startproc
 573              	.LVL64:
  16:lib/mpu/src/gd32v_mpu6500_if.c ****     i2c_clock_config(port, 100000,I2C_DTCY_2 );
 574              		.loc 1 16 5
 575 0000 E165     		li	a1,98304
  15:lib/mpu/src/gd32v_mpu6500_if.c **** void i2c_master_init(uint32_t port){
 576              		.loc 1 15 36 is_stmt 0
 577 0002 4111     		addi	sp,sp,-16
 578              	.LCFI8:
 579              		.cfi_def_cfa_offset 16
  16:lib/mpu/src/gd32v_mpu6500_if.c ****     i2c_clock_config(port, 100000,I2C_DTCY_2 );
 580              		.loc 1 16 5
GAS LISTING C:\Users\Jesper\AppData\Local\Temp\ccbCAWhk.s 			page 15


 581 0004 0146     		li	a2,0
 582 0006 9385056A 		addi	a1,a1,1696
  15:lib/mpu/src/gd32v_mpu6500_if.c **** void i2c_master_init(uint32_t port){
 583              		.loc 1 15 36
 584 000a 22C4     		sw	s0,8(sp)
 585 000c 06C6     		sw	ra,12(sp)
 586              		.cfi_offset 8, -8
 587              		.cfi_offset 1, -4
  15:lib/mpu/src/gd32v_mpu6500_if.c **** void i2c_master_init(uint32_t port){
 588              		.loc 1 15 36
 589 000e 2A84     		mv	s0,a0
  16:lib/mpu/src/gd32v_mpu6500_if.c ****     i2c_clock_config(port, 100000,I2C_DTCY_2 );
 590              		.loc 1 16 5
 591 0010 97000000 		call	i2c_clock_config
 591      E7800000 
 592              	.LVL65:
  17:lib/mpu/src/gd32v_mpu6500_if.c ****     i2c_enable(port);
 593              		.loc 1 17 5 is_stmt 1
 594 0018 2285     		mv	a0,s0
  18:lib/mpu/src/gd32v_mpu6500_if.c **** }
 595              		.loc 1 18 1 is_stmt 0
 596 001a 2244     		lw	s0,8(sp)
 597              		.cfi_restore 8
 598              	.LVL66:
 599 001c B240     		lw	ra,12(sp)
 600              		.cfi_restore 1
 601 001e 4101     		addi	sp,sp,16
 602              	.LCFI9:
 603              		.cfi_def_cfa_offset 0
  17:lib/mpu/src/gd32v_mpu6500_if.c ****     i2c_enable(port);
 604              		.loc 1 17 5
 605 0020 17030000 		tail	i2c_enable
 605      67000300 
 606              	.LVL67:
 607              		.cfi_endproc
 608              	.LFE6:
 610              		.section	.text.i2c_master_init_400k,"ax",@progbits
 611              		.align	1
 612              		.globl	i2c_master_init_400k
 614              	i2c_master_init_400k:
 615              	.LFB7:
  20:lib/mpu/src/gd32v_mpu6500_if.c **** void i2c_master_init_400k(uint32_t port){
 616              		.loc 1 20 41 is_stmt 1
 617              		.cfi_startproc
 618              	.LVL68:
  21:lib/mpu/src/gd32v_mpu6500_if.c ****     i2c_clock_config(port, 400000, I2C_DTCY_16_9);
 619              		.loc 1 21 5
 620 0000 B7250600 		li	a1,401408
  20:lib/mpu/src/gd32v_mpu6500_if.c **** void i2c_master_init_400k(uint32_t port){
 621              		.loc 1 20 41 is_stmt 0
 622 0004 4111     		addi	sp,sp,-16
 623              	.LCFI10:
 624              		.cfi_def_cfa_offset 16
  21:lib/mpu/src/gd32v_mpu6500_if.c ****     i2c_clock_config(port, 400000, I2C_DTCY_16_9);
 625              		.loc 1 21 5
 626 0006 1166     		li	a2,16384
 627 0008 938505A8 		addi	a1,a1,-1408
GAS LISTING C:\Users\Jesper\AppData\Local\Temp\ccbCAWhk.s 			page 16


  20:lib/mpu/src/gd32v_mpu6500_if.c **** void i2c_master_init_400k(uint32_t port){
 628              		.loc 1 20 41
 629 000c 22C4     		sw	s0,8(sp)
 630 000e 06C6     		sw	ra,12(sp)
 631              		.cfi_offset 8, -8
 632              		.cfi_offset 1, -4
  20:lib/mpu/src/gd32v_mpu6500_if.c **** void i2c_master_init_400k(uint32_t port){
 633              		.loc 1 20 41
 634 0010 2A84     		mv	s0,a0
  21:lib/mpu/src/gd32v_mpu6500_if.c ****     i2c_clock_config(port, 400000, I2C_DTCY_16_9);
 635              		.loc 1 21 5
 636 0012 97000000 		call	i2c_clock_config
 636      E7800000 
 637              	.LVL69:
  22:lib/mpu/src/gd32v_mpu6500_if.c ****     i2c_enable(port);
 638              		.loc 1 22 5 is_stmt 1
 639 001a 2285     		mv	a0,s0
  23:lib/mpu/src/gd32v_mpu6500_if.c **** }
 640              		.loc 1 23 1 is_stmt 0
 641 001c 2244     		lw	s0,8(sp)
 642              		.cfi_restore 8
 643              	.LVL70:
 644 001e B240     		lw	ra,12(sp)
 645              		.cfi_restore 1
 646 0020 4101     		addi	sp,sp,16
 647              	.LCFI11:
 648              		.cfi_def_cfa_offset 0
  22:lib/mpu/src/gd32v_mpu6500_if.c ****     i2c_enable(port);
 649              		.loc 1 22 5
 650 0022 17030000 		tail	i2c_enable
 650      67000300 
 651              	.LVL71:
 652              		.cfi_endproc
 653              	.LFE7:
 655              		.section	.text.mpu6500_install,"ax",@progbits
 656              		.align	1
 657              		.globl	mpu6500_install
 659              	mpu6500_install:
 660              	.LFB5:
   8:lib/mpu/src/gd32v_mpu6500_if.c **** void mpu6500_install(uint32_t port){
 661              		.loc 1 8 36 is_stmt 1
 662              		.cfi_startproc
 663              	.LVL72:
   9:lib/mpu/src/gd32v_mpu6500_if.c **** 	i2c_port = port;
 664              		.loc 1 9 2
   8:lib/mpu/src/gd32v_mpu6500_if.c **** void mpu6500_install(uint32_t port){
 665              		.loc 1 8 36 is_stmt 0
 666 0000 4111     		addi	sp,sp,-16
 667              	.LCFI12:
 668              		.cfi_def_cfa_offset 16
 669 0002 22C4     		sw	s0,8(sp)
 670              		.cfi_offset 8, -8
   9:lib/mpu/src/gd32v_mpu6500_if.c **** 	i2c_port = port;
 671              		.loc 1 9 11
 672 0004 37040000 		lui	s0,%hi(i2c_port)
   8:lib/mpu/src/gd32v_mpu6500_if.c **** void mpu6500_install(uint32_t port){
 673              		.loc 1 8 36
GAS LISTING C:\Users\Jesper\AppData\Local\Temp\ccbCAWhk.s 			page 17


 674 0008 06C6     		sw	ra,12(sp)
 675              		.cfi_offset 1, -4
   9:lib/mpu/src/gd32v_mpu6500_if.c **** 	i2c_port = port;
 676              		.loc 1 9 11
 677 000a 2320A400 		sw	a0,%lo(i2c_port)(s0)
  11:lib/mpu/src/gd32v_mpu6500_if.c ****     i2c_master_init_400k(i2c_port);
 678              		.loc 1 11 5 is_stmt 1
 679 000e 97000000 		call	i2c_master_init_400k
 679      E7800000 
 680              	.LVL73:
  12:lib/mpu/src/gd32v_mpu6500_if.c **** 	mpu6500_init(&i2c_master_read_register, &i2c_master_write_register, &mpu_delay, (void*)&i2c_port);
 681              		.loc 1 12 2
 682 0016 93060400 		addi	a3,s0,%lo(i2c_port)
  13:lib/mpu/src/gd32v_mpu6500_if.c **** }
 683              		.loc 1 13 1 is_stmt 0
 684 001a 2244     		lw	s0,8(sp)
 685              		.cfi_restore 8
 686 001c B240     		lw	ra,12(sp)
 687              		.cfi_restore 1
  12:lib/mpu/src/gd32v_mpu6500_if.c **** 	mpu6500_init(&i2c_master_read_register, &i2c_master_write_register, &mpu_delay, (void*)&i2c_port);
 688              		.loc 1 12 2
 689 001e 37060000 		lui	a2,%hi(mpu_delay)
 690 0022 B7050000 		lui	a1,%hi(i2c_master_write_register)
 691 0026 37050000 		lui	a0,%hi(i2c_master_read_register)
  13:lib/mpu/src/gd32v_mpu6500_if.c **** }
 692              		.loc 1 13 1
  12:lib/mpu/src/gd32v_mpu6500_if.c **** 	mpu6500_init(&i2c_master_read_register, &i2c_master_write_register, &mpu_delay, (void*)&i2c_port);
 693              		.loc 1 12 2
 694 002a 13060600 		addi	a2,a2,%lo(mpu_delay)
 695 002e 93850500 		addi	a1,a1,%lo(i2c_master_write_register)
 696 0032 13050500 		addi	a0,a0,%lo(i2c_master_read_register)
  13:lib/mpu/src/gd32v_mpu6500_if.c **** }
 697              		.loc 1 13 1
 698 0036 4101     		addi	sp,sp,16
 699              	.LCFI13:
 700              		.cfi_def_cfa_offset 0
  12:lib/mpu/src/gd32v_mpu6500_if.c **** 	mpu6500_init(&i2c_master_read_register, &i2c_master_write_register, &mpu_delay, (void*)&i2c_port);
 701              		.loc 1 12 2
 702 0038 17030000 		tail	mpu6500_init
 702      67000300 
 703              	.LVL74:
 704              		.cfi_endproc
 705              	.LFE5:
 707              		.section	.text.i2c_dma_master_read_register,"ax",@progbits
 708              		.align	1
 709              		.globl	i2c_dma_master_read_register
 711              	i2c_dma_master_read_register:
 712              	.LFB10:
  84:lib/mpu/src/gd32v_mpu6500_if.c **** void i2c_dma_master_read_register(uint32_t handle, uint8_t addr, uint8_t reg){
 713              		.loc 1 84 78 is_stmt 1
 714              		.cfi_startproc
 715              	.LVL75:
  85:lib/mpu/src/gd32v_mpu6500_if.c ****     int32_t port = handle;
 716              		.loc 1 85 5
  84:lib/mpu/src/gd32v_mpu6500_if.c **** void i2c_dma_master_read_register(uint32_t handle, uint8_t addr, uint8_t reg){
 717              		.loc 1 84 78 is_stmt 0
 718 0000 4111     		addi	sp,sp,-16
GAS LISTING C:\Users\Jesper\AppData\Local\Temp\ccbCAWhk.s 			page 18


 719              	.LCFI14:
 720              		.cfi_def_cfa_offset 16
 721 0002 22C4     		sw	s0,8(sp)
 722 0004 26C2     		sw	s1,4(sp)
 723 0006 4AC0     		sw	s2,0(sp)
 724 0008 06C6     		sw	ra,12(sp)
 725              		.cfi_offset 8, -8
 726              		.cfi_offset 9, -12
 727              		.cfi_offset 18, -16
 728              		.cfi_offset 1, -4
  84:lib/mpu/src/gd32v_mpu6500_if.c **** void i2c_dma_master_read_register(uint32_t handle, uint8_t addr, uint8_t reg){
 729              		.loc 1 84 78
 730 000a 2A84     		mv	s0,a0
 731              	.LVL76:
  92:lib/mpu/src/gd32v_mpu6500_if.c ****     i2c_start_on_bus(port);
 732              		.loc 1 92 5 is_stmt 1
  84:lib/mpu/src/gd32v_mpu6500_if.c **** void i2c_dma_master_read_register(uint32_t handle, uint8_t addr, uint8_t reg){
 733              		.loc 1 84 78 is_stmt 0
 734 000c AE84     		mv	s1,a1
 735 000e 3289     		mv	s2,a2
  92:lib/mpu/src/gd32v_mpu6500_if.c ****     i2c_start_on_bus(port);
 736              		.loc 1 92 5
 737 0010 97000000 		call	i2c_start_on_bus
 737      E7800000 
 738              	.LVL77:
  93:lib/mpu/src/gd32v_mpu6500_if.c ****     while(!i2c_flag_get(port, I2C_FLAG_SBSEND));
 739              		.loc 1 93 5 is_stmt 1
 740              	.L65:
  93:lib/mpu/src/gd32v_mpu6500_if.c ****     while(!i2c_flag_get(port, I2C_FLAG_SBSEND));
 741              		.loc 1 93 48 discriminator 1
  93:lib/mpu/src/gd32v_mpu6500_if.c ****     while(!i2c_flag_get(port, I2C_FLAG_SBSEND));
 742              		.loc 1 93 12 is_stmt 0 discriminator 1
 743 0018 93050050 		li	a1,1280
 744 001c 2285     		mv	a0,s0
 745 001e 97000000 		call	i2c_flag_get
 745      E7800000 
 746              	.LVL78:
  93:lib/mpu/src/gd32v_mpu6500_if.c ****     while(!i2c_flag_get(port, I2C_FLAG_SBSEND));
 747              		.loc 1 93 10 discriminator 1
 748 0026 6DD9     		beq	a0,zero,.L65
  96:lib/mpu/src/gd32v_mpu6500_if.c ****     i2c_master_addressing(port, addr << 1, I2C_TRANSMITTER);
 749              		.loc 1 96 5 is_stmt 1
  96:lib/mpu/src/gd32v_mpu6500_if.c ****     i2c_master_addressing(port, addr << 1, I2C_TRANSMITTER);
 750              		.loc 1 96 38 is_stmt 0
 751 0028 8604     		slli	s1,s1,1
  96:lib/mpu/src/gd32v_mpu6500_if.c ****     i2c_master_addressing(port, addr << 1, I2C_TRANSMITTER);
 752              		.loc 1 96 5
 753 002a 7956     		li	a2,-2
 754 002c A685     		mv	a1,s1
 755 002e 2285     		mv	a0,s0
 756 0030 97000000 		call	i2c_master_addressing
 756      E7800000 
 757              	.LVL79:
  99:lib/mpu/src/gd32v_mpu6500_if.c ****     while(!i2c_flag_get(port, I2C_FLAG_ADDSEND));
 758              		.loc 1 99 5 is_stmt 1
 759              	.L66:
  99:lib/mpu/src/gd32v_mpu6500_if.c ****     while(!i2c_flag_get(port, I2C_FLAG_ADDSEND));
GAS LISTING C:\Users\Jesper\AppData\Local\Temp\ccbCAWhk.s 			page 19


 760              		.loc 1 99 49 discriminator 1
  99:lib/mpu/src/gd32v_mpu6500_if.c ****     while(!i2c_flag_get(port, I2C_FLAG_ADDSEND));
 761              		.loc 1 99 12 is_stmt 0 discriminator 1
 762 0038 93051050 		li	a1,1281
 763 003c 2285     		mv	a0,s0
 764 003e 97000000 		call	i2c_flag_get
 764      E7800000 
 765              	.LVL80:
  99:lib/mpu/src/gd32v_mpu6500_if.c ****     while(!i2c_flag_get(port, I2C_FLAG_ADDSEND));
 766              		.loc 1 99 10 discriminator 1
 767 0046 6DD9     		beq	a0,zero,.L66
 100:lib/mpu/src/gd32v_mpu6500_if.c ****     i2c_flag_clear(port, I2C_FLAG_ADDSEND);
 768              		.loc 1 100 5 is_stmt 1
 769 0048 93051050 		li	a1,1281
 770 004c 2285     		mv	a0,s0
 771 004e 97000000 		call	i2c_flag_clear
 771      E7800000 
 772              	.LVL81:
 101:lib/mpu/src/gd32v_mpu6500_if.c ****     while(!i2c_flag_get(port, I2C_FLAG_TBE));
 773              		.loc 1 101 5
 774              	.L67:
 101:lib/mpu/src/gd32v_mpu6500_if.c ****     while(!i2c_flag_get(port, I2C_FLAG_TBE));
 775              		.loc 1 101 45 discriminator 1
 101:lib/mpu/src/gd32v_mpu6500_if.c ****     while(!i2c_flag_get(port, I2C_FLAG_TBE));
 776              		.loc 1 101 12 is_stmt 0 discriminator 1
 777 0056 93057050 		li	a1,1287
 778 005a 2285     		mv	a0,s0
 779 005c 97000000 		call	i2c_flag_get
 779      E7800000 
 780              	.LVL82:
 101:lib/mpu/src/gd32v_mpu6500_if.c ****     while(!i2c_flag_get(port, I2C_FLAG_TBE));
 781              		.loc 1 101 10 discriminator 1
 782 0064 6DD9     		beq	a0,zero,.L67
 103:lib/mpu/src/gd32v_mpu6500_if.c ****     i2c_data_transmit(port, reg);
 783              		.loc 1 103 5 is_stmt 1
 784 0066 CA85     		mv	a1,s2
 785 0068 2285     		mv	a0,s0
 786 006a 97000000 		call	i2c_data_transmit
 786      E7800000 
 787              	.LVL83:
 105:lib/mpu/src/gd32v_mpu6500_if.c ****     while(!i2c_flag_get(port, I2C_FLAG_TBE));
 788              		.loc 1 105 5
 789              	.L68:
 105:lib/mpu/src/gd32v_mpu6500_if.c ****     while(!i2c_flag_get(port, I2C_FLAG_TBE));
 790              		.loc 1 105 45 discriminator 1
 105:lib/mpu/src/gd32v_mpu6500_if.c ****     while(!i2c_flag_get(port, I2C_FLAG_TBE));
 791              		.loc 1 105 12 is_stmt 0 discriminator 1
 792 0072 93057050 		li	a1,1287
 793 0076 2285     		mv	a0,s0
 794 0078 97000000 		call	i2c_flag_get
 794      E7800000 
 795              	.LVL84:
 105:lib/mpu/src/gd32v_mpu6500_if.c ****     while(!i2c_flag_get(port, I2C_FLAG_TBE));
 796              		.loc 1 105 10 discriminator 1
 797 0080 6DD9     		beq	a0,zero,.L68
 107:lib/mpu/src/gd32v_mpu6500_if.c ****     i2c_start_on_bus(port);
 798              		.loc 1 107 5 is_stmt 1
GAS LISTING C:\Users\Jesper\AppData\Local\Temp\ccbCAWhk.s 			page 20


 799 0082 2285     		mv	a0,s0
 800 0084 97000000 		call	i2c_start_on_bus
 800      E7800000 
 801              	.LVL85:
 108:lib/mpu/src/gd32v_mpu6500_if.c ****     while( ! i2c_flag_get(port, I2C_FLAG_SBSEND) );
 802              		.loc 1 108 5
 803              	.L69:
 108:lib/mpu/src/gd32v_mpu6500_if.c ****     while( ! i2c_flag_get(port, I2C_FLAG_SBSEND) );
 804              		.loc 1 108 51 discriminator 1
 108:lib/mpu/src/gd32v_mpu6500_if.c ****     while( ! i2c_flag_get(port, I2C_FLAG_SBSEND) );
 805              		.loc 1 108 14 is_stmt 0 discriminator 1
 806 008c 93050050 		li	a1,1280
 807 0090 2285     		mv	a0,s0
 808 0092 97000000 		call	i2c_flag_get
 808      E7800000 
 809              	.LVL86:
 108:lib/mpu/src/gd32v_mpu6500_if.c ****     while( ! i2c_flag_get(port, I2C_FLAG_SBSEND) );
 810              		.loc 1 108 10 discriminator 1
 811 009a 6DD9     		beq	a0,zero,.L69
 110:lib/mpu/src/gd32v_mpu6500_if.c ****     i2c_master_addressing(port, addr << 1, I2C_RECEIVER);
 812              		.loc 1 110 5 is_stmt 1
 813 009c 0546     		li	a2,1
 814 009e A685     		mv	a1,s1
 815 00a0 2285     		mv	a0,s0
 816 00a2 97000000 		call	i2c_master_addressing
 816      E7800000 
 817              	.LVL87:
 111:lib/mpu/src/gd32v_mpu6500_if.c ****     while( ! i2c_flag_get(port, I2C_FLAG_ADDSEND) );
 818              		.loc 1 111 5
 819              	.L70:
 111:lib/mpu/src/gd32v_mpu6500_if.c ****     while( ! i2c_flag_get(port, I2C_FLAG_ADDSEND) );
 820              		.loc 1 111 52 discriminator 1
 111:lib/mpu/src/gd32v_mpu6500_if.c ****     while( ! i2c_flag_get(port, I2C_FLAG_ADDSEND) );
 821              		.loc 1 111 14 is_stmt 0 discriminator 1
 822 00aa 93051050 		li	a1,1281
 823 00ae 2285     		mv	a0,s0
 824 00b0 97000000 		call	i2c_flag_get
 824      E7800000 
 825              	.LVL88:
 111:lib/mpu/src/gd32v_mpu6500_if.c ****     while( ! i2c_flag_get(port, I2C_FLAG_ADDSEND) );
 826              		.loc 1 111 10 discriminator 1
 827 00b8 6DD9     		beq	a0,zero,.L70
 112:lib/mpu/src/gd32v_mpu6500_if.c ****     i2c_flag_clear(port, I2C_FLAG_ADDSEND);
 828              		.loc 1 112 5 is_stmt 1
 829 00ba 2285     		mv	a0,s0
 830 00bc 93051050 		li	a1,1281
 831 00c0 97000000 		call	i2c_flag_clear
 831      E7800000 
 832              	.LVL89:
 114:lib/mpu/src/gd32v_mpu6500_if.c ****     i2c_ack_config(port, I2C_ACK_ENABLE);
 833              		.loc 1 114 5
 834 00c8 2285     		mv	a0,s0
 835 00ca 8545     		li	a1,1
 836 00cc 97000000 		call	i2c_ack_config
 836      E7800000 
 837              	.LVL90:
 115:lib/mpu/src/gd32v_mpu6500_if.c ****     i2c_dma_enable(port, I2C_DMA_ON);
GAS LISTING C:\Users\Jesper\AppData\Local\Temp\ccbCAWhk.s 			page 21


 838              		.loc 1 115 5
 839 00d4 8565     		li	a1,4096
 840 00d6 2285     		mv	a0,s0
 841 00d8 93850580 		addi	a1,a1,-2048
 842 00dc 97000000 		call	i2c_dma_enable
 842      E7800000 
 843              	.LVL91:
 116:lib/mpu/src/gd32v_mpu6500_if.c ****     i2c_dma_last_transfer_config(port, I2C_DMALST_ON);
 844              		.loc 1 116 5
 845 00e4 2285     		mv	a0,s0
 846 00e6 8565     		li	a1,4096
 847 00e8 97000000 		call	i2c_dma_last_transfer_config
 847      E7800000 
 848              	.LVL92:
 117:lib/mpu/src/gd32v_mpu6500_if.c ****     dma_config();
 849              		.loc 1 117 5
 119:lib/mpu/src/gd32v_mpu6500_if.c **** }
 850              		.loc 1 119 1 is_stmt 0
 851 00f0 2244     		lw	s0,8(sp)
 852              		.cfi_restore 8
 853              	.LVL93:
 854 00f2 B240     		lw	ra,12(sp)
 855              		.cfi_restore 1
 856 00f4 9244     		lw	s1,4(sp)
 857              		.cfi_restore 9
 858 00f6 0249     		lw	s2,0(sp)
 859              		.cfi_restore 18
 860 00f8 4101     		addi	sp,sp,16
 861              	.LCFI15:
 862              		.cfi_def_cfa_offset 0
 117:lib/mpu/src/gd32v_mpu6500_if.c ****     dma_config();
 863              		.loc 1 117 5
 864 00fa 17030000 		tail	dma_config
 864      67000300 
 865              	.LVL94:
 866              		.cfi_endproc
 867              	.LFE10:
 869              		.comm	i2c_port,4,4
 870              		.comm	dataBuffer,22,4
 871              		.section	.rodata.mpu_delay.cst8,"aM",@progbits,8
 872              		.align	3
 873              	.LC0:
 874 0000 00000000 		.word	0
 875 0004 0040AF40 		.word	1085227008
 876              		.text
 877              	.Letext0:
 878              		.file 2 "c:\\users\\jesper\\documents\\ml_sommarjobb\\toolchain-gd32v-v201-win\\toolchain-gd32v-v2
 879              		.file 3 "c:\\users\\jesper\\documents\\ml_sommarjobb\\toolchain-gd32v-v201-win\\toolchain-gd32v-v2
 880              		.file 4 "c:\\users\\jesper\\documents\\ml_sommarjobb\\toolchain-gd32v-v201-win\\toolchain-gd32v-v2
 881              		.file 5 "c:\\users\\jesper\\documents\\ml_sommarjobb\\toolchain-gd32v-v201-win\\toolchain-gd32v-v2
 882              		.file 6 "c:\\users\\jesper\\documents\\ml_sommarjobb\\toolchain-gd32v-v201-win\\toolchain-gd32v-v2
 883              		.file 7 "c:\\users\\jesper\\documents\\ml_sommarjobb\\toolchain-gd32v-v201-win\\toolchain-gd32v-v2
 884              		.file 8 "./../../firmware/GD32VF103_standard_peripheral/system_gd32vf103.h"
 885              		.file 9 "lib/dma/include/dma.h"
 886              		.file 10 "./../../firmware/GD32VF103_standard_peripheral/Include/gd32vf103_i2c.h"
 887              		.file 11 "./../../firmware/RISCV/drivers/n200_func.h"
 888              		.file 12 "lib/mpu/include/mpu6500_driver.h"
GAS LISTING C:\Users\Jesper\AppData\Local\Temp\ccbCAWhk.s 			page 22


GAS LISTING C:\Users\Jesper\AppData\Local\Temp\ccbCAWhk.s 			page 23

