GAS LISTING C:\Users\Jesper\AppData\Local\Temp\cc4647b3.s 			page 1


   1              		.file	"main.c"
   2              		.option nopic
   3              		.attribute arch, "rv32i2p0_m2p0_a2p0_c2p0"
   4              		.attribute unaligned_access, 0
   5              		.attribute stack_align, 16
   6              		.text
   7              	.Ltext0:
   8              		.cfi_sections	.debug_frame
   9              		.comm	dataBuffer,22,4
  10              		.globl	last_Sample_buffer
  11              		.globl	header
  12              		.globl	labels
  13              		.globl	pDatabuffer
  14              		.globl	measurments_taken
  15              		.globl	current_label
  16              		.section	.text.startup.main,"ax",@progbits
  17              		.align	1
  18              		.globl	main
  20              	main:
  21              	.LFB7:
  22              		.file 1 "main.c"
   1:main.c        **** #include "gd32vf103.h"
   2:main.c        **** #include "usb_serial_if.h"
   3:main.c        **** #include "usb_delay.h"
   4:main.c        **** #include <stdlib.h>
   5:main.c        **** #include <string.h>
   6:main.c        **** #include "systick.h"
   7:main.c        **** #include "gd32v_tf_card_if.h"
   8:main.c        **** #include "ff.h"
   9:main.c        **** #include "gd32v_mpu6500_if.h"
  10:main.c        **** #include "dma.h"
  11:main.c        **** #include "mpu6500_registers.h"
  12:main.c        **** #include "mpu6500_driver.h"
  13:main.c        **** #include "queue.h"
  14:main.c        **** #include "tf_card.h"
  15:main.c        **** 
  16:main.c        **** #define BUFFER_SIZE 512
  17:main.c        **** #define DESIRED_FREQUENCY_HZ 1000
  18:main.c        **** #define NUMBER_OF_GESTURES 3
  19:main.c        **** #define MEASURMENTS_OF_EACH_GESTURE 100
  20:main.c        **** #define MEASURMENTS_PER_GESTURE 100
  21:main.c        **** //total data points recorded will be NUMBER_OF_GESTURES * MEASURMENTS_OF_EACH_GESTURE * MEASURMENTS
  22:main.c        **** 
  23:main.c        **** /* FILENAME should be at most 8 chars long and the extension should be at most 3 */
  24:main.c        **** 
  25:main.c        **** volatile int16_t last_Sample_buffer[3] = {0};
  26:main.c        **** char header[] = "X-acc;Y-acc;Z-acc;label\n";
  27:main.c        **** char labels[NUMBER_OF_GESTURES][10] = {
  28:main.c        ****     "idle",
  29:main.c        ****     "waving",
  30:main.c        ****     "sliding"
  31:main.c        **** };
  32:main.c        **** 
  33:main.c        **** void ledInit (void);
  34:main.c        **** void led_on_B1();
  35:main.c        **** void led_off_B1();
  36:main.c        **** void led_on_B0();
GAS LISTING C:\Users\Jesper\AppData\Local\Temp\cc4647b3.s 			page 2


  37:main.c        **** void led_off_B0();
  38:main.c        **** void led_on_off_B1();
  39:main.c        **** void timer_interrupt_config();
  40:main.c        **** void init_mpu(void);
  41:main.c        **** int millis(void);
  42:main.c        **** void append_newLine(char *string, int length);
  43:main.c        **** int append_int_to_string(char *string, int integer);
  44:main.c        **** int int_to_string(char *string, int integer);
  45:main.c        **** void formatTime(char *output, int minutes, int seconds, int milliseconds);
  46:main.c        ****          
  47:main.c        **** uint8_t* pDatabuffer = (uint8_t*)&dataBuffer;
  48:main.c        **** uint32_t measurments_taken = 0;
  49:main.c        **** char current_label[10] = "idle";
  50:main.c        **** 
  51:main.c        **** int main(void){
  23              		.loc 1 51 15
  24              		.cfi_startproc
  52:main.c        ****     uint32_t count = 0;
  25              		.loc 1 52 5
  26              	.LVL0:
  53:main.c        ****     char usb_data_buffer[512] = {'\0'};
  27              		.loc 1 53 5
  54:main.c        ****     char usb_read_buf[80] = {'\0'};
  28              		.loc 1 54 5
  55:main.c        **** 
  56:main.c        ****     configure_usb_serial();
  29              		.loc 1 56 5
  51:main.c        ****     uint32_t count = 0;
  30              		.loc 1 51 15 is_stmt 0
  31 0000 13010181 		addi	sp,sp,-2032
  32              	.LCFI0:
  33              		.cfi_def_cfa_offset 2032
  34 0004 2326117E 		sw	ra,2028(sp)
  35 0008 2324817E 		sw	s0,2024(sp)
  36 000c 2322917E 		sw	s1,2020(sp)
  37 0010 2320217F 		sw	s2,2016(sp)
  38 0014 232E317D 		sw	s3,2012(sp)
  39 0018 232C417D 		sw	s4,2008(sp)
  40 001c 232A517D 		sw	s5,2004(sp)
  41 0020 2328617D 		sw	s6,2000(sp)
  42 0024 2326717D 		sw	s7,1996(sp)
  43 0028 2324817D 		sw	s8,1992(sp)
  44 002c 2322917D 		sw	s9,1988(sp)
  45 0030 2320A17D 		sw	s10,1984(sp)
  46 0034 232EB17B 		sw	s11,1980(sp)
  47 0038 13010194 		addi	sp,sp,-1728
  48              	.LCFI1:
  49              		.cfi_def_cfa_offset 3760
  50              		.cfi_offset 1, -4
  51              		.cfi_offset 8, -8
  52              		.cfi_offset 9, -12
  53              		.cfi_offset 18, -16
  54              		.cfi_offset 19, -20
  55              		.cfi_offset 20, -24
  56              		.cfi_offset 21, -28
  57              		.cfi_offset 22, -32
  58              		.cfi_offset 23, -36
GAS LISTING C:\Users\Jesper\AppData\Local\Temp\cc4647b3.s 			page 3


  59              		.cfi_offset 24, -40
  60              		.cfi_offset 25, -44
  61              		.cfi_offset 26, -48
  62              		.cfi_offset 27, -52
  63              		.loc 1 56 5
  64 003c 97000000 		call	configure_usb_serial
  64      E7800000 
  65              	.LVL1:
  57:main.c        ****     usb_delay_1ms(1);
  66              		.loc 1 57 5 is_stmt 1
  67 0044 0545     		li	a0,1
  68 0046 97000000 		call	usb_delay_1ms
  68      E7800000 
  69              	.LVL2:
  58:main.c        **** 
  59:main.c        ****     while (!usb_serial_available()) {
  70              		.loc 1 59 5
  71              	.L2:
  72              		.loc 1 59 13 is_stmt 0
  73 004e 97000000 		call	usb_serial_available
  73      E7800000 
  74              	.LVL3:
  75              		.loc 1 59 11
  76 0056 63060530 		beq	a0,zero,.L3
  60:main.c        ****         usb_delay_1ms(100);
  61:main.c        ****     }
  62:main.c        ****     printf("\r\nready\r\n");
  77              		.loc 1 62 5 is_stmt 1
  78 005a B7040000 		lui	s1,%hi(.LANCHOR0)
  79 005e 13850400 		addi	a0,s1,%lo(.LANCHOR0)
  80 0062 97000000 		call	puts
  80      E7800000 
  81              	.LVL4:
  63:main.c        **** 
  64:main.c        ****     init_q();
  82              		.loc 1 64 5
  83 006a 97000000 		call	init_q
  83      E7800000 
  84              	.LVL5:
  65:main.c        ****     ledInit();
  85              		.loc 1 65 5
  86 0072 97000000 		call	ledInit
  86      E7800000 
  87              	.LVL6:
  66:main.c        ****     usb_delay_1ms(1);
  88              		.loc 1 66 5
  89 007a 0545     		li	a0,1
  90 007c 97000000 		call	usb_delay_1ms
  90      E7800000 
  91              	.LVL7:
  67:main.c        ****     uint32_t total_data_points = NUMBER_OF_GESTURES * MEASURMENTS_OF_EACH_GESTURE * MEASURMENTS_PER
  92              		.loc 1 67 5
  68:main.c        ****     /* Handle for the mounted filesystem */
  69:main.c        ****     FATFS fs;
  93              		.loc 1 69 5
  70:main.c        **** 
  71:main.c        ****     /* FatFs return code */
GAS LISTING C:\Users\Jesper\AppData\Local\Temp\cc4647b3.s 			page 4


  72:main.c        ****     volatile FRESULT fr;
  94              		.loc 1 72 5
  73:main.c        **** 
  74:main.c        ****     /* File handle */
  75:main.c        ****     FIL fil;
  95              		.loc 1 75 5
  76:main.c        **** 
  77:main.c        ****     /* Used for bytes written */
  78:main.c        ****     UINT bw = 0;
  96              		.loc 1 78 5
  79:main.c        ****     
  80:main.c        ****     /* Sets a valid date for when writing to file */
  81:main.c        ****     set_fattime(1980, 1, 1, 0, 0, 0); // 1980 Jan 1st, 00:00:00
  97              		.loc 1 81 5 is_stmt 0
  98 0084 8146     		li	a3,0
  99 0086 8147     		li	a5,0
 100 0088 0147     		li	a4,0
 101 008a 0546     		li	a2,1
 102 008c 8545     		li	a1,1
 103 008e 1305C07B 		li	a0,1980
  78:main.c        ****     
 104              		.loc 1 78 10
 105 0092 02CA     		sw	zero,20(sp)
 106              		.loc 1 81 5 is_stmt 1
 107 0094 97000000 		call	set_fattime
 107      E7800000 
 108              	.LVL8:
  82:main.c        ****     delay_1ms(100);
 109              		.loc 1 82 5
 110 009c 13054006 		li	a0,100
 111 00a0 97000000 		call	delay_1ms
 111      E7800000 
 112              	.LVL9:
  83:main.c        **** 
  84:main.c        ****     /* This function "mounts" the SD-card which makes the filesystem available */
  85:main.c        ****     fr = f_mount(&fs, "test", 1); // Mount storage device
 113              		.loc 1 85 5
 114              		.loc 1 85 10 is_stmt 0
 115 00a8 056B     		li	s6,4096
 116 00aa 1808     		addi	a4,sp,16
  78:main.c        ****     
 117              		.loc 1 78 10
 118 00ac 7D79     		li	s2,-4096
 119              		.loc 1 85 10
 120 00ae 93070BE6 		addi	a5,s6,-416
 121 00b2 BA97     		add	a5,a5,a4
 122 00b4 130A093D 		addi	s4,s2,976
 123 00b8 3E9A     		add	s4,a5,s4
 124 00ba B70A0000 		lui	s5,%hi(.LC1)
 125 00be 0546     		li	a2,1
 126 00c0 93850A00 		addi	a1,s5,%lo(.LC1)
 127 00c4 5285     		mv	a0,s4
 128 00c6 97000000 		call	f_mount
 128      E7800000 
 129              	.LVL10:
 130              		.loc 1 85 8
 131 00ce 2AC8     		sw	a0,16(sp)
GAS LISTING C:\Users\Jesper\AppData\Local\Temp\cc4647b3.s 			page 5


  86:main.c        **** 
  87:main.c        ****     /* This function opens a file. In this case, we are creating a file which we want to write to *
  88:main.c        ****     
  89:main.c        ****     delay_1ms(400);
 132              		.loc 1 89 5 is_stmt 1
 133 00d0 13050019 		li	a0,400
 134 00d4 97000000 		call	delay_1ms
 134      E7800000 
 135              	.LVL11:
  90:main.c        ****     printf("initiating MPU\r\n");
 136              		.loc 1 90 5
  62:main.c        **** 
 137              		.loc 1 62 5 is_stmt 0
 138 00dc 93890400 		addi	s3,s1,%lo(.LANCHOR0)
 139              		.loc 1 90 5
 140 00e0 13854901 		addi	a0,s3,20
 141 00e4 97000000 		call	puts
 141      E7800000 
 142              	.LVL12:
  91:main.c        ****     init_mpu();
 143              		.loc 1 91 5 is_stmt 1
 144 00ec 97000000 		call	init_mpu
 144      E7800000 
 145              	.LVL13:
  92:main.c        ****     printf("MPU initiated\r\n");
 146              		.loc 1 92 5
 147 00f4 13854902 		addi	a0,s3,36
 148 00f8 97000000 		call	puts
 148      E7800000 
 149              	.LVL14:
  93:main.c        **** 
  94:main.c        ****     rcu_periph_clock_enable(RCU_DMA0);
 150              		.loc 1 94 5
 151 0100 13050050 		li	a0,1280
 152 0104 97000000 		call	rcu_periph_clock_enable
 152      E7800000 
 153              	.LVL15:
  95:main.c        **** 
  96:main.c        ****     delay_1ms(20);
 154              		.loc 1 96 5
 155 010c 5145     		li	a0,20
  97:main.c        **** 
  98:main.c        ****     char write_to_sd[2560] = {'\0'};
 156              		.loc 1 98 10 is_stmt 0
 157 010e 0564     		li	s0,4096
  96:main.c        **** 
 158              		.loc 1 96 5
 159 0110 97000000 		call	delay_1ms
 159      E7800000 
 160              	.LVL16:
 161              		.loc 1 98 5 is_stmt 1
 162              		.loc 1 98 10 is_stmt 0
 163 0118 130404A0 		addi	s0,s0,-1536
 164 011c 2286     		mv	a2,s0
 165 011e 8145     		li	a1,0
 166 0120 13050147 		addi	a0,sp,1136
 167 0124 97000000 		call	memset
GAS LISTING C:\Users\Jesper\AppData\Local\Temp\cc4647b3.s 			page 6


 167      E7800000 
 168              	.LVL17:
  99:main.c        ****     char buf[BUFFER_SIZE] = {'\0'};
 169              		.loc 1 99 5 is_stmt 1
 100:main.c        ****     
 101:main.c        ****     
 102:main.c        ****     int blink = 0;
 170              		.loc 1 102 5
 103:main.c        ****     int onOff = 0;
 171              		.loc 1 103 5
 104:main.c        ****     
 105:main.c        ****     fr = f_mount(&fs, "test", 1); // Mount storage device
 172              		.loc 1 105 5
 173              		.loc 1 105 10 is_stmt 0
 174 012c 0546     		li	a2,1
 175 012e 93850A00 		addi	a1,s5,%lo(.LC1)
 176 0132 5285     		mv	a0,s4
 177 0134 97000000 		call	f_mount
 177      E7800000 
 178              	.LVL18:
 106:main.c        ****     f_sync(&fil);
 179              		.loc 1 106 5
 180 013c 1808     		addi	a4,sp,16
 181 013e 93070BE6 		addi	a5,s6,-416
 182 0142 BA97     		add	a5,a5,a4
 183 0144 1309891A 		addi	s2,s2,424
 184 0148 3E99     		add	s2,a5,s2
 105:main.c        ****     f_sync(&fil);
 185              		.loc 1 105 8
 186 014a 2AC8     		sw	a0,16(sp)
 187              		.loc 1 106 5 is_stmt 1
 188 014c 4A85     		mv	a0,s2
 189 014e 97000000 		call	f_sync
 189      E7800000 
 190              	.LVL19:
 107:main.c        **** 
 108:main.c        ****     fr = f_open(&fil, "TDATA.CSV", FA_WRITE | FA_CREATE_ALWAYS);
 191              		.loc 1 108 5
 192              		.loc 1 108 10 is_stmt 0
 193 0156 93854903 		addi	a1,s3,52
 194 015a 2946     		li	a2,10
 195 015c 4A85     		mv	a0,s2
 196 015e 97000000 		call	f_open
 196      E7800000 
 197              	.LVL20:
 198              		.loc 1 108 8
 199 0166 2AC8     		sw	a0,16(sp)
 109:main.c        ****     clear_queues();
 200              		.loc 1 109 5 is_stmt 1
 201 0168 97000000 		call	clear_queues
 201      E7800000 
 202              	.LVL21:
 110:main.c        ****     f_sync(&fil);
 203              		.loc 1 110 5
 204 0170 4A85     		mv	a0,s2
 205 0172 97000000 		call	f_sync
 205      E7800000 
GAS LISTING C:\Users\Jesper\AppData\Local\Temp\cc4647b3.s 			page 7


 206              	.LVL22:
 111:main.c        ****     //ENABLE interrupts for data collection
 112:main.c        **** 
 113:main.c        ****     printf("running\r\n");
 207              		.loc 1 113 5
 208 017a 13850904 		addi	a0,s3,64
 209 017e 97000000 		call	puts
 209      E7800000 
 210              	.LVL23:
 114:main.c        ****     int start_measurment= 0;
 211              		.loc 1 114 5
 115:main.c        ****     for (int gesture = 0; gesture < NUMBER_OF_GESTURES; gesture++) {
 212              		.loc 1 115 5
 213              	.LBB2:
 214              		.loc 1 115 10
 215              	.LBB3:
 116:main.c        ****         timer_interrupt_disable(TIMER1, TIMER_INT_CH0);
 117:main.c        ****         printf("start %s\r\n", labels[gesture]);
 118:main.c        ****         fflush(0);
 119:main.c        ****         delay_1ms(5000);
 120:main.c        ****         start_measurment = 1;
 121:main.c        ****         for (int repetition = 0; repetition < MEASURMENTS_OF_EACH_GESTURE; repetition++) {
 122:main.c        ****             snprintf(current_label, sizeof(current_label), "%s", labels[gesture]);
 123:main.c        ****             printf("Collecting data for gesture: %s, repetition %d\r\n", current_label, repetition 
 124:main.c        ****             enqueue_string(header);
 125:main.c        ****             if(start_measurment == 1){
 126:main.c        ****                 timer_interrupt_config();
 127:main.c        ****                 config_clic_irqs();
 128:main.c        ****                 eclic_global_interrupt_enable();  
 129:main.c        ****             }
 130:main.c        ****             start_measurment = 0;
 131:main.c        **** 
 132:main.c        ****             while(measurments_taken < MEASURMENTS_PER_GESTURE * (gesture * MEASURMENTS_OF_EACH_GEST
 133:main.c        ****                 blink++;
 134:main.c        ****                 if (blink == 1000000){
 135:main.c        ****                     blink = 0;
 136:main.c        ****                     if(onOff){
 137:main.c        ****                         led_on_B0();
 138:main.c        ****                         onOff = 0;
 139:main.c        ****                     }else{
 140:main.c        ****                         led_off_B0();
 141:main.c        ****                         onOff = 1;
 142:main.c        ****                     }
 143:main.c        ****                 }
 144:main.c        ****                 
 145:main.c        ****                 if(queue_str_len() > 5){ //Behövs högre hastighet så kan vi öka denna 5:an
 146:main.c        ****                     memset(write_to_sd, '\0', sizeof(write_to_sd));
 216              		.loc 1 146 21 is_stmt 0
 217 0186 1808     		addi	a4,sp,16
 218 0188 93070BE6 		addi	a5,s6,-416
 219 018c BA97     		add	a5,a5,a4
 220 018e 7D7D     		li	s10,-4096
 147:main.c        ****                     //printf("x=%d, y=%d, z=%d\r\n", last_Sample_buffer[0],last_Sample_buffer[1],la
 148:main.c        ****                     fflush(0);
 149:main.c        ****                     if (dequeue_string(write_to_sd, 5)) { //Behövs högre hastighet så kan vi ök
 150:main.c        ****                         f_write(&fil, write_to_sd, strlen(write_to_sd), &bw);
 221              		.loc 1 150 25
GAS LISTING C:\Users\Jesper\AppData\Local\Temp\cc4647b3.s 			page 8


 222 0190 13070BE6 		addi	a4,s6,-416
 223 0194 1408     		addi	a3,sp,16
 146:main.c        ****                     //printf("x=%d, y=%d, z=%d\r\n", last_Sample_buffer[0],last_Sample_buffer[1],la
 224              		.loc 1 146 21
 225 0196 33848740 		sub	s0,a5,s0
 226              		.loc 1 150 25
 227 019a 3697     		add	a4,a4,a3
 228 019c 93074D1A 		addi	a5,s10,420
 229 01a0 37090000 		lui	s2,%hi(.LANCHOR1)
 230 01a4 BA97     		add	a5,a4,a5
 231 01a6 13090900 		addi	s2,s2,%lo(.LANCHOR1)
 232              	.LBE3:
 233              	.LBE2:
 113:main.c        ****     int start_measurment= 0;
 234              		.loc 1 113 5
 235 01aa 130A4006 		li	s4,100
 103:main.c        ****     
 236              		.loc 1 103 9
 237 01ae 814B     		li	s7,0
 102:main.c        ****     int onOff = 0;
 238              		.loc 1 102 9
 239 01b0 8149     		li	s3,0
 240 01b2 93840400 		addi	s1,s1,%lo(.LANCHOR0)
 241              	.LBB9:
 242              	.LBB4:
 122:main.c        ****             printf("Collecting data for gesture: %s, repetition %d\r\n", current_label, repetition 
 243              		.loc 1 122 13
 244 01b6 B70C0000 		lui	s9,%hi(.LANCHOR2)
 245              		.loc 1 150 25
 246 01ba 3EC6     		sw	a5,12(sp)
 247              	.LVL24:
 248              	.L13:
 249              	.LBE4:
 116:main.c        ****         printf("start %s\r\n", labels[gesture]);
 250              		.loc 1 116 9 is_stmt 1
 251 01bc 8945     		li	a1,2
 252 01be 37050040 		li	a0,1073741824
 253 01c2 97000000 		call	timer_interrupt_disable
 253      E7800000 
 254              	.LVL25:
 117:main.c        ****         fflush(0);
 255              		.loc 1 117 9
 256 01ca CA85     		mv	a1,s2
 257 01cc 1385C404 		addi	a0,s1,76
 258 01d0 97000000 		call	printf
 258      E7800000 
 259              	.LVL26:
 118:main.c        ****         delay_1ms(5000);
 260              		.loc 1 118 9
 261 01d8 0145     		li	a0,0
 262 01da 97000000 		call	fflush
 262      E7800000 
 263              	.LVL27:
 119:main.c        ****         start_measurment = 1;
 264              		.loc 1 119 9
 265 01e2 0565     		li	a0,4096
 266 01e4 13058538 		addi	a0,a0,904
GAS LISTING C:\Users\Jesper\AppData\Local\Temp\cc4647b3.s 			page 9


 267 01e8 97000000 		call	delay_1ms
 267      E7800000 
 268              	.LVL28:
 120:main.c        ****         for (int repetition = 0; repetition < MEASURMENTS_OF_EACH_GESTURE; repetition++) {
 269              		.loc 1 120 9
 121:main.c        ****             snprintf(current_label, sizeof(current_label), "%s", labels[gesture]);
 270              		.loc 1 121 9
 271              	.LBB5:
 121:main.c        ****             snprintf(current_label, sizeof(current_label), "%s", labels[gesture]);
 272              		.loc 1 121 14
 273              	.LBE5:
 119:main.c        ****         start_measurment = 1;
 274              		.loc 1 119 9 is_stmt 0
 275 01f0 528C     		mv	s8,s4
 276              	.LBB6:
 121:main.c        ****             snprintf(current_label, sizeof(current_label), "%s", labels[gesture]);
 277              		.loc 1 121 18
 278 01f2 814A     		li	s5,0
 279              	.LBE6:
 120:main.c        ****         for (int repetition = 0; repetition < MEASURMENTS_OF_EACH_GESTURE; repetition++) {
 280              		.loc 1 120 26
 281 01f4 054B     		li	s6,1
 282              	.LVL29:
 283              	.L12:
 284              	.LBB7:
 122:main.c        ****             printf("Collecting data for gesture: %s, repetition %d\r\n", current_label, repetition 
 285              		.loc 1 122 13 is_stmt 1
 286 01f6 37060000 		lui	a2,%hi(.LC7)
 287 01fa CA86     		mv	a3,s2
 288 01fc 13060600 		addi	a2,a2,%lo(.LC7)
 289 0200 A945     		li	a1,10
 290 0202 13850C00 		addi	a0,s9,%lo(.LANCHOR2)
 291 0206 97000000 		call	snprintf
 291      E7800000 
 292              	.LVL30:
 123:main.c        ****             enqueue_string(header);
 293              		.loc 1 123 13
 294 020e 850A     		addi	s5,s5,1
 295              	.LVL31:
 296 0210 5686     		mv	a2,s5
 297 0212 93850C00 		addi	a1,s9,%lo(.LANCHOR2)
 298 0216 1385C405 		addi	a0,s1,92
 299 021a 97000000 		call	printf
 299      E7800000 
 300              	.LVL32:
 124:main.c        ****             if(start_measurment == 1){
 301              		.loc 1 124 13
 302 0222 37050000 		lui	a0,%hi(.LANCHOR3)
 303 0226 13050500 		addi	a0,a0,%lo(.LANCHOR3)
 304 022a 97000000 		call	enqueue_string
 304      E7800000 
 305              	.LVL33:
 125:main.c        ****                 timer_interrupt_config();
 306              		.loc 1 125 13
 125:main.c        ****                 timer_interrupt_config();
 307              		.loc 1 125 15 is_stmt 0
 308 0232 630E0B00 		beq	s6,zero,.L4
GAS LISTING C:\Users\Jesper\AppData\Local\Temp\cc4647b3.s 			page 10


 309              	.LVL34:
 126:main.c        ****                 config_clic_irqs();
 310              		.loc 1 126 17 is_stmt 1
 311 0236 97000000 		call	timer_interrupt_config
 311      E7800000 
 312              	.LVL35:
 127:main.c        ****                 eclic_global_interrupt_enable();  
 313              		.loc 1 127 17
 314 023e 97000000 		call	config_clic_irqs
 314      E7800000 
 315              	.LVL36:
 128:main.c        ****             }
 316              		.loc 1 128 17
 317 0246 97000000 		call	eclic_global_interrupt_enable
 317      E7800000 
 318              	.LVL37:
 319              	.L4:
 320              		.loc 1 150 25 is_stmt 0
 321 024e 8567     		li	a5,4096
 322 0250 938707E6 		addi	a5,a5,-416
 323 0254 1808     		addi	a4,sp,16
 324 0256 130B8D1A 		addi	s6,s10,424
 325 025a BA97     		add	a5,a5,a4
 132:main.c        ****                 blink++;
 326              		.loc 1 132 37
 327 025c B70D0000 		lui	s11,%hi(.LANCHOR4)
 328              		.loc 1 150 25
 329 0260 3E9B     		add	s6,a5,s6
 330              	.L5:
 132:main.c        ****                 blink++;
 331              		.loc 1 132 18
 332 0262 83A70D00 		lw	a5,%lo(.LANCHOR4)(s11)
 333 0266 63E58711 		bltu	a5,s8,.L11
 334              	.LVL38:
 121:main.c        ****             snprintf(current_label, sizeof(current_label), "%s", labels[gesture]);
 335              		.loc 1 121 9
 336 026a 93074006 		li	a5,100
 337 026e 130C4C06 		addi	s8,s8,100
 130:main.c        **** 
 338              		.loc 1 130 30
 339 0272 014B     		li	s6,0
 121:main.c        ****             snprintf(current_label, sizeof(current_label), "%s", labels[gesture]);
 340              		.loc 1 121 9
 341 0274 E391FAF8 		bne	s5,a5,.L12
 342 0278 8967     		li	a5,8192
 343 027a 93870771 		addi	a5,a5,1808
 344 027e 3E9A     		add	s4,s4,a5
 345              	.LBE7:
 115:main.c        ****         timer_interrupt_disable(TIMER1, TIMER_INT_CH0);
 346              		.loc 1 115 5 discriminator 2
 347 0280 9D67     		li	a5,28672
 348 0282 93874759 		addi	a5,a5,1428
 349 0286 2909     		addi	s2,s2,10
 350 0288 E31AFAF2 		bne	s4,a5,.L13
 351              	.LBE9:
 151:main.c        ****                         f_sync(&fil);
 152:main.c        ****                     }
GAS LISTING C:\Users\Jesper\AppData\Local\Temp\cc4647b3.s 			page 11


 153:main.c        ****                 }
 154:main.c        ****             }
 155:main.c        ****         }
 156:main.c        ****     }
 157:main.c        **** 
 158:main.c        ****     printf("Emptying queue\r\n");
 352              		.loc 1 158 5 is_stmt 1
 353 028c 13850409 		addi	a0,s1,144
 354 0290 97000000 		call	puts
 354      E7800000 
 355              	.LVL39:
 159:main.c        ****     timer_interrupt_disable(TIMER1, TIMER_INT_CH0);
 356              		.loc 1 159 5
 357 0298 8945     		li	a1,2
 358 029a 37050040 		li	a0,1073741824
 359 029e 97000000 		call	timer_interrupt_disable
 359      E7800000 
 360              	.LVL40:
 160:main.c        ****     write_to_sd[0] = '\0';
 361              		.loc 1 160 5
 362              		.loc 1 160 20 is_stmt 0
 363 02a6 0567     		li	a4,4096
 364 02a8 1008     		addi	a2,sp,16
 365 02aa 930607E6 		addi	a3,a4,-416
 366 02ae B296     		add	a3,a3,a2
 367 02b0 FD77     		li	a5,-4096
 368 02b2 B697     		add	a5,a3,a5
 161:main.c        ****     while(empty_string_queue(write_to_sd, 5)){
 369              		.loc 1 161 11
 370 02b4 7D74     		li	s0,-4096
 371 02b6 930607E6 		addi	a3,a4,-416
 372 02ba B296     		add	a3,a3,a2
 373 02bc 13090460 		addi	s2,s0,1536
 374 02c0 3699     		add	s2,a3,s2
 162:main.c        ****         f_write(&fil, write_to_sd, strlen(write_to_sd), &bw); // testa byt strlen till buf_size fö
 375              		.loc 1 162 9
 376 02c2 930607E6 		addi	a3,a4,-416
 377 02c6 130707E6 		addi	a4,a4,-416
 378 02ca 130A441A 		addi	s4,s0,420
 379 02ce B296     		add	a3,a3,a2
 380 02d0 9309841A 		addi	s3,s0,424
 381              	.LVL41:
 382 02d4 3297     		add	a4,a4,a2
 160:main.c        ****     write_to_sd[0] = '\0';
 383              		.loc 1 160 20
 384 02d6 23800760 		sb	zero,1536(a5)
 161:main.c        ****     while(empty_string_queue(write_to_sd, 5)){
 385              		.loc 1 161 5 is_stmt 1
 386              		.loc 1 162 9 is_stmt 0
 387 02da 369A     		add	s4,a3,s4
 388 02dc BA99     		add	s3,a4,s3
 163:main.c        ****         f_sync(&fil);
 164:main.c        ****         write_to_sd[0] = '\0';
 389              		.loc 1 164 24
 390 02de BE84     		mv	s1,a5
 391              	.L14:
 161:main.c        ****         f_write(&fil, write_to_sd, strlen(write_to_sd), &bw); // testa byt strlen till buf_size fö
GAS LISTING C:\Users\Jesper\AppData\Local\Temp\cc4647b3.s 			page 12


 392              		.loc 1 161 11
 393 02e0 9545     		li	a1,5
 394 02e2 4A85     		mv	a0,s2
 395 02e4 97000000 		call	empty_string_queue
 395      E7800000 
 396              	.LVL42:
 161:main.c        ****         f_write(&fil, write_to_sd, strlen(write_to_sd), &bw); // testa byt strlen till buf_size fö
 397              		.loc 1 161 10
 398 02ec 63180510 		bne	a0,zero,.L15
 165:main.c        ****     }    
 166:main.c        **** 
 167:main.c        ****     f_close(&fil);
 399              		.loc 1 167 5 is_stmt 1
 400 02f0 8567     		li	a5,4096
 401 02f2 1808     		addi	a4,sp,16
 402 02f4 938707E6 		addi	a5,a5,-416
 403 02f8 BA97     		add	a5,a5,a4
 404 02fa 1305841A 		addi	a0,s0,424
 405 02fe 3E95     		add	a0,a5,a0
 406 0300 97000000 		call	f_close
 406      E7800000 
 407              	.LVL43:
 168:main.c        ****     printf("done\r\n");
 408              		.loc 1 168 5
 409 0308 37050000 		lui	a0,%hi(.LC10)
 410 030c 13050500 		addi	a0,a0,%lo(.LC10)
 411 0310 97000000 		call	puts
 411      E7800000 
 412              	.LVL44:
 169:main.c        ****     fflush(0);
 413              		.loc 1 169 5
 414 0318 0145     		li	a0,0
 415 031a 97000000 		call	fflush
 415      E7800000 
 416              	.LVL45:
 170:main.c        **** }
 417              		.loc 1 170 1 is_stmt 0
 418 0322 1301016C 		addi	sp,sp,1728
 419              	.LCFI2:
 420              		.cfi_remember_state
 421              		.cfi_def_cfa_offset 2032
 422 0326 8320C17E 		lw	ra,2028(sp)
 423              		.cfi_restore 1
 424 032a 0145     		li	a0,0
 425 032c 0324817E 		lw	s0,2024(sp)
 426              		.cfi_restore 8
 427 0330 8324417E 		lw	s1,2020(sp)
 428              		.cfi_restore 9
 429 0334 0329017E 		lw	s2,2016(sp)
 430              		.cfi_restore 18
 431 0338 8329C17D 		lw	s3,2012(sp)
 432              		.cfi_restore 19
 433 033c 032A817D 		lw	s4,2008(sp)
 434              		.cfi_restore 20
 435 0340 832A417D 		lw	s5,2004(sp)
 436              		.cfi_restore 21
 437              	.LVL46:
GAS LISTING C:\Users\Jesper\AppData\Local\Temp\cc4647b3.s 			page 13


 438 0344 032B017D 		lw	s6,2000(sp)
 439              		.cfi_restore 22
 440 0348 832BC17C 		lw	s7,1996(sp)
 441              		.cfi_restore 23
 442              	.LVL47:
 443 034c 032C817C 		lw	s8,1992(sp)
 444              		.cfi_restore 24
 445 0350 832C417C 		lw	s9,1988(sp)
 446              		.cfi_restore 25
 447 0354 032D017C 		lw	s10,1984(sp)
 448              		.cfi_restore 26
 449 0358 832DC17B 		lw	s11,1980(sp)
 450              		.cfi_restore 27
 451 035c 1301017F 		addi	sp,sp,2032
 452              	.LCFI3:
 453              		.cfi_def_cfa_offset 0
 454 0360 8280     		jr	ra
 455              	.LVL48:
 456              	.L3:
 457              	.LCFI4:
 458              		.cfi_restore_state
  60:main.c        ****     }
 459              		.loc 1 60 9 is_stmt 1
 460 0362 13054006 		li	a0,100
 461 0366 97000000 		call	usb_delay_1ms
 461      E7800000 
 462              	.LVL49:
 463 036e C5B1     		j	.L2
 464              	.LVL50:
 465              	.L11:
 466              	.LBB10:
 467              	.LBB8:
 133:main.c        ****                 if (blink == 1000000){
 468              		.loc 1 133 17
 134:main.c        ****                     blink = 0;
 469              		.loc 1 134 20 is_stmt 0
 470 0370 B7470F00 		li	a5,999424
 133:main.c        ****                 if (blink == 1000000){
 471              		.loc 1 133 22
 472 0374 8509     		addi	s3,s3,1
 473              	.LVL51:
 134:main.c        ****                     blink = 0;
 474              		.loc 1 134 17 is_stmt 1
 134:main.c        ****                     blink = 0;
 475              		.loc 1 134 20 is_stmt 0
 476 0376 93870724 		addi	a5,a5,576
 477 037a 639AF900 		bne	s3,a5,.L6
 135:main.c        ****                     if(onOff){
 478              		.loc 1 135 21 is_stmt 1
 479              	.LVL52:
 136:main.c        ****                         led_on_B0();
 480              		.loc 1 136 21
 136:main.c        ****                         led_on_B0();
 481              		.loc 1 136 23 is_stmt 0
 482 037e 63880B06 		beq	s7,zero,.L7
 137:main.c        ****                         onOff = 0;
 483              		.loc 1 137 25 is_stmt 1
GAS LISTING C:\Users\Jesper\AppData\Local\Temp\cc4647b3.s 			page 14


 484 0382 97000000 		call	led_on_B0
 484      E7800000 
 485              	.LVL53:
 138:main.c        ****                     }else{
 486              		.loc 1 138 25
 138:main.c        ****                     }else{
 487              		.loc 1 138 31 is_stmt 0
 488 038a 814B     		li	s7,0
 135:main.c        ****                     if(onOff){
 489              		.loc 1 135 27
 490 038c 8149     		li	s3,0
 491              	.LVL54:
 492              	.L6:
 145:main.c        ****                     memset(write_to_sd, '\0', sizeof(write_to_sd));
 493              		.loc 1 145 17 is_stmt 1
 145:main.c        ****                     memset(write_to_sd, '\0', sizeof(write_to_sd));
 494              		.loc 1 145 20 is_stmt 0
 495 038e 97000000 		call	queue_str_len
 495      E7800000 
 496              	.LVL55:
 145:main.c        ****                     memset(write_to_sd, '\0', sizeof(write_to_sd));
 497              		.loc 1 145 19
 498 0396 9547     		li	a5,5
 499 0398 E3D5A7EC 		ble	a0,a5,.L5
 146:main.c        ****                     //printf("x=%d, y=%d, z=%d\r\n", last_Sample_buffer[0],last_Sample_buffer[1],la
 500              		.loc 1 146 21 is_stmt 1
 501 039c 0566     		li	a2,4096
 502 039e 8145     		li	a1,0
 503 03a0 130606A0 		addi	a2,a2,-1536
 504 03a4 2285     		mv	a0,s0
 505 03a6 97000000 		call	memset
 505      E7800000 
 506              	.LVL56:
 148:main.c        ****                     if (dequeue_string(write_to_sd, 5)) { //Behövs högre hastighet så kan vi ök
 507              		.loc 1 148 21
 508 03ae 0145     		li	a0,0
 509 03b0 97000000 		call	fflush
 509      E7800000 
 510              	.LVL57:
 149:main.c        ****                         f_write(&fil, write_to_sd, strlen(write_to_sd), &bw);
 511              		.loc 1 149 21
 149:main.c        ****                         f_write(&fil, write_to_sd, strlen(write_to_sd), &bw);
 512              		.loc 1 149 25 is_stmt 0
 513 03b8 9545     		li	a1,5
 514 03ba 2285     		mv	a0,s0
 515 03bc 97000000 		call	dequeue_string
 515      E7800000 
 516              	.LVL58:
 149:main.c        ****                         f_write(&fil, write_to_sd, strlen(write_to_sd), &bw);
 517              		.loc 1 149 24
 518 03c4 E30F05E8 		beq	a0,zero,.L5
 150:main.c        ****                         f_sync(&fil);
 519              		.loc 1 150 25 is_stmt 1
 520 03c8 2285     		mv	a0,s0
 521 03ca 97000000 		call	strlen
 521      E7800000 
 522              	.LVL59:
GAS LISTING C:\Users\Jesper\AppData\Local\Temp\cc4647b3.s 			page 15


 523 03d2 B246     		lw	a3,12(sp)
 524 03d4 2A86     		mv	a2,a0
 525 03d6 A285     		mv	a1,s0
 526 03d8 5A85     		mv	a0,s6
 527 03da 97000000 		call	f_write
 527      E7800000 
 528              	.LVL60:
 151:main.c        ****                     }
 529              		.loc 1 151 25
 530 03e2 5A85     		mv	a0,s6
 531 03e4 97000000 		call	f_sync
 531      E7800000 
 532              	.LVL61:
 533 03ec 9DBD     		j	.L5
 534              	.LVL62:
 535              	.L7:
 140:main.c        ****                         onOff = 1;
 536              		.loc 1 140 25
 537 03ee 97000000 		call	led_off_B0
 537      E7800000 
 538              	.LVL63:
 141:main.c        ****                     }
 539              		.loc 1 141 25
 135:main.c        ****                     if(onOff){
 540              		.loc 1 135 27 is_stmt 0
 541 03f6 8149     		li	s3,0
 141:main.c        ****                     }
 542              		.loc 1 141 31
 543 03f8 854B     		li	s7,1
 544 03fa 51BF     		j	.L6
 545              	.LVL64:
 546              	.L15:
 547              	.LBE8:
 548              	.LBE10:
 162:main.c        ****         f_sync(&fil);
 549              		.loc 1 162 9 is_stmt 1
 550 03fc 4A85     		mv	a0,s2
 551 03fe 97000000 		call	strlen
 551      E7800000 
 552              	.LVL65:
 553 0406 2A86     		mv	a2,a0
 554 0408 D286     		mv	a3,s4
 555 040a CA85     		mv	a1,s2
 556 040c 4E85     		mv	a0,s3
 557 040e 97000000 		call	f_write
 557      E7800000 
 558              	.LVL66:
 163:main.c        ****         write_to_sd[0] = '\0';
 559              		.loc 1 163 9
 560 0416 4E85     		mv	a0,s3
 561 0418 97000000 		call	f_sync
 561      E7800000 
 562              	.LVL67:
 164:main.c        ****     }    
 563              		.loc 1 164 9
 164:main.c        ****     }    
 564              		.loc 1 164 24 is_stmt 0
GAS LISTING C:\Users\Jesper\AppData\Local\Temp\cc4647b3.s 			page 16


 565 0420 23800460 		sb	zero,1536(s1)
 566 0424 75BD     		j	.L14
 567              		.cfi_endproc
 568              	.LFE7:
 570              		.globl	__fixsfsi
 571              		.section	.text.TIMER1_IRQHandler,"ax",@progbits
 572              		.align	1
 573              		.globl	TIMER1_IRQHandler
 575              	TIMER1_IRQHandler:
 576              	.LFB8:
 171:main.c        **** 
 172:main.c        **** 
 173:main.c        **** void TIMER1_IRQHandler(void){
 577              		.loc 1 173 29 is_stmt 1
 578              		.cfi_startproc
 174:main.c        ****     led_on_off_B1(measurments_taken%2==0);
 579              		.loc 1 174 5
 173:main.c        ****     led_on_off_B1(measurments_taken%2==0);
 580              		.loc 1 173 29 is_stmt 0
 581 0000 1D71     		addi	sp,sp,-96
 582              	.LCFI5:
 583              		.cfi_def_cfa_offset 96
 584 0002 A2CC     		sw	s0,88(sp)
 585              		.cfi_offset 8, -8
 586              		.loc 1 174 36
 587 0004 37040000 		lui	s0,%hi(.LANCHOR4)
 588 0008 13040400 		addi	s0,s0,%lo(.LANCHOR4)
 589              		.loc 1 174 5
 590 000c 0840     		lw	a0,0(s0)
 173:main.c        ****     led_on_off_B1(measurments_taken%2==0);
 591              		.loc 1 173 29
 592 000e 86CE     		sw	ra,92(sp)
 593              		.cfi_offset 1, -4
 594              		.loc 1 174 5
 595 0010 1345F5FF 		not	a0,a0
 596 0014 0589     		andi	a0,a0,1
 597 0016 97000000 		call	led_on_off_B1
 597      E7800000 
 598              	.LVL68:
 175:main.c        ****     char buf[64] = {'\0'};
 599              		.loc 1 175 5 is_stmt 1
 600              		.loc 1 175 10 is_stmt 0
 601 001e 13060004 		li	a2,64
 602 0022 8145     		li	a1,0
 603 0024 0808     		addi	a0,sp,16
 604 0026 97000000 		call	memset
 604      E7800000 
 605              	.LVL69:
 176:main.c        ****     int buf_size = 0;   
 606              		.loc 1 176 5 is_stmt 1
 177:main.c        ****     measurments_taken++;
 607              		.loc 1 177 5
 608              		.loc 1 177 22 is_stmt 0
 609 002e 1C40     		lw	a5,0(s0)
 178:main.c        ****     dma_vector_t vector_write;
 179:main.c        ****     mpu_vector_t vec;
 180:main.c        ****     /* Check which channel triggered the interrupt */
GAS LISTING C:\Users\Jesper\AppData\Local\Temp\cc4647b3.s 			page 17


 181:main.c        ****     if(SET == timer_interrupt_flag_get(TIMER1, TIMER_INT_CH0)){
 610              		.loc 1 181 15
 611 0030 8945     		li	a1,2
 612 0032 37050040 		li	a0,1073741824
 177:main.c        ****     measurments_taken++;
 613              		.loc 1 177 22
 614 0036 8507     		addi	a5,a5,1
 615 0038 1CC0     		sw	a5,0(s0)
 178:main.c        ****     dma_vector_t vector_write;
 616              		.loc 1 178 5 is_stmt 1
 179:main.c        ****     /* Check which channel triggered the interrupt */
 617              		.loc 1 179 5
 618              		.loc 1 181 5
 619              		.loc 1 181 15 is_stmt 0
 620 003a 97000000 		call	timer_interrupt_flag_get
 620      E7800000 
 621              	.LVL70:
 622              		.loc 1 181 7
 623 0042 8547     		li	a5,1
 624 0044 6317F50C 		bne	a0,a5,.L22
 182:main.c        ****         mpu6500_getAccel(&vec);
 625              		.loc 1 182 9 is_stmt 1
 626 0048 4800     		addi	a0,sp,4
 627 004a 97000000 		call	mpu6500_getAccel
 627      E7800000 
 628              	.LVL71:
 183:main.c        ****         last_Sample_buffer[0] = (int16_t)vec.x;
 629              		.loc 1 183 9
 630              		.loc 1 183 33 is_stmt 0
 631 0052 1245     		lw	a0,4(sp)
 632              		.loc 1 183 31
 633 0054 37040000 		lui	s0,%hi(.LANCHOR5)
 634 0058 13040400 		addi	s0,s0,%lo(.LANCHOR5)
 635              		.loc 1 183 33
 636 005c 97000000 		call	__fixsfsi
 636      E7800000 
 637              	.LVL72:
 638 0064 4205     		slli	a0,a0,16
 639 0066 4185     		srai	a0,a0,16
 640              		.loc 1 183 31
 641 0068 2310A400 		sh	a0,0(s0)
 184:main.c        ****         last_Sample_buffer[1] = (int16_t)vec.y;
 642              		.loc 1 184 9 is_stmt 1
 643              		.loc 1 184 33 is_stmt 0
 644 006c 2245     		lw	a0,8(sp)
 645 006e 97000000 		call	__fixsfsi
 645      E7800000 
 646              	.LVL73:
 647 0076 4205     		slli	a0,a0,16
 648 0078 4185     		srai	a0,a0,16
 649              		.loc 1 184 31
 650 007a 2311A400 		sh	a0,2(s0)
 185:main.c        ****         last_Sample_buffer[2] = (int16_t)vec.z;
 651              		.loc 1 185 9 is_stmt 1
 652              		.loc 1 185 33 is_stmt 0
 653 007e 3245     		lw	a0,12(sp)
 654 0080 97000000 		call	__fixsfsi
GAS LISTING C:\Users\Jesper\AppData\Local\Temp\cc4647b3.s 			page 18


 654      E7800000 
 655              	.LVL74:
 656 0088 4205     		slli	a0,a0,16
 657 008a 4185     		srai	a0,a0,16
 658              		.loc 1 185 31
 659 008c 2312A400 		sh	a0,4(s0)
 186:main.c        ****         append_int_to_string(buf, last_Sample_buffer[0]);
 660              		.loc 1 186 9 is_stmt 1
 661              		.loc 1 186 53 is_stmt 0
 662 0090 83550400 		lhu	a1,0(s0)
 663              		.loc 1 186 9
 664 0094 0808     		addi	a0,sp,16
 665 0096 C205     		slli	a1,a1,16
 666 0098 C185     		srai	a1,a1,16
 667 009a 97000000 		call	append_int_to_string
 667      E7800000 
 668              	.LVL75:
 187:main.c        ****         append_int_to_string(buf, last_Sample_buffer[1]);
 669              		.loc 1 187 9 is_stmt 1
 670              		.loc 1 187 53 is_stmt 0
 671 00a2 83552400 		lhu	a1,2(s0)
 672              		.loc 1 187 9
 673 00a6 0808     		addi	a0,sp,16
 674 00a8 C205     		slli	a1,a1,16
 675 00aa C185     		srai	a1,a1,16
 676 00ac 97000000 		call	append_int_to_string
 676      E7800000 
 677              	.LVL76:
 188:main.c        ****         append_int_to_string(buf, last_Sample_buffer[2]);
 678              		.loc 1 188 9 is_stmt 1
 679              		.loc 1 188 53 is_stmt 0
 680 00b4 83554400 		lhu	a1,4(s0)
 681              		.loc 1 188 9
 682 00b8 0808     		addi	a0,sp,16
 683 00ba C205     		slli	a1,a1,16
 684 00bc C185     		srai	a1,a1,16
 685 00be 97000000 		call	append_int_to_string
 685      E7800000 
 686              	.LVL77:
 189:main.c        **** 
 190:main.c        ****         // Append label to the string
 191:main.c        ****         strncat(buf, current_label, sizeof(buf) - strlen(buf) - 1);
 687              		.loc 1 191 9 is_stmt 1
 688              		.loc 1 191 51 is_stmt 0
 689 00c6 0808     		addi	a0,sp,16
 690 00c8 97000000 		call	strlen
 690      E7800000 
 691              	.LVL78:
 692              		.loc 1 191 9
 693 00d0 1306F003 		li	a2,63
 694 00d4 B7050000 		lui	a1,%hi(.LANCHOR2)
 695 00d8 098E     		sub	a2,a2,a0
 696 00da 93850500 		addi	a1,a1,%lo(.LANCHOR2)
 697 00de 0808     		addi	a0,sp,16
 698 00e0 97000000 		call	strncat
 698      E7800000 
 699              	.LVL79:
GAS LISTING C:\Users\Jesper\AppData\Local\Temp\cc4647b3.s 			page 19


 192:main.c        ****         strcat(buf, "\n");
 700              		.loc 1 192 9 is_stmt 1
 701 00e8 B7050000 		lui	a1,%hi(.LC11)
 702 00ec 93850500 		addi	a1,a1,%lo(.LC11)
 703 00f0 0808     		addi	a0,sp,16
 704 00f2 97000000 		call	strcat
 704      E7800000 
 705              	.LVL80:
 193:main.c        **** 
 194:main.c        ****         enqueue_string(buf);
 706              		.loc 1 194 9
 707 00fa 0808     		addi	a0,sp,16
 708 00fc 97000000 		call	enqueue_string
 708      E7800000 
 709              	.LVL81:
 195:main.c        **** 
 196:main.c        ****         timer_interrupt_flag_clear(TIMER1, TIMER_INT_CH0);
 710              		.loc 1 196 9
 711 0104 8945     		li	a1,2
 712 0106 37050040 		li	a0,1073741824
 713 010a 97000000 		call	timer_interrupt_flag_clear
 713      E7800000 
 714              	.LVL82:
 715              	.L22:
 197:main.c        ****     }
 198:main.c        **** }
 716              		.loc 1 198 1 is_stmt 0
 717 0112 F640     		lw	ra,92(sp)
 718              		.cfi_restore 1
 719 0114 6644     		lw	s0,88(sp)
 720              		.cfi_restore 8
 721 0116 2561     		addi	sp,sp,96
 722              	.LCFI6:
 723              		.cfi_def_cfa_offset 0
 724 0118 8280     		jr	ra
 725              		.cfi_endproc
 726              	.LFE8:
 728              		.section	.text.ledInit,"ax",@progbits
 729              		.align	1
 730              		.globl	ledInit
 732              	ledInit:
 733              	.LFB9:
 199:main.c        **** 
 200:main.c        **** void ledInit (void){
 734              		.loc 1 200 20 is_stmt 1
 735              		.cfi_startproc
 201:main.c        ****     rcu_periph_clock_enable(RCU_GPIOB);
 736              		.loc 1 201 5
 200:main.c        ****     rcu_periph_clock_enable(RCU_GPIOB);
 737              		.loc 1 200 20 is_stmt 0
 738 0000 4111     		addi	sp,sp,-16
 739              	.LCFI7:
 740              		.cfi_def_cfa_offset 16
 741              		.loc 1 201 5
 742 0002 13053060 		li	a0,1539
 200:main.c        ****     rcu_periph_clock_enable(RCU_GPIOB);
 743              		.loc 1 200 20
GAS LISTING C:\Users\Jesper\AppData\Local\Temp\cc4647b3.s 			page 20


 744 0006 06C6     		sw	ra,12(sp)
 745              		.cfi_offset 1, -4
 746              		.loc 1 201 5
 747 0008 97000000 		call	rcu_periph_clock_enable
 747      E7800000 
 748              	.LVL83:
 202:main.c        ****     gpio_init(GPIOB, GPIO_MODE_OUT_PP, GPIO_OSPEED_50MHZ, GPIO_PIN_0 | GPIO_PIN_1);
 749              		.loc 1 202 5 is_stmt 1
 203:main.c        **** }
 750              		.loc 1 203 1 is_stmt 0
 751 0010 B240     		lw	ra,12(sp)
 752              		.cfi_restore 1
 202:main.c        ****     gpio_init(GPIOB, GPIO_MODE_OUT_PP, GPIO_OSPEED_50MHZ, GPIO_PIN_0 | GPIO_PIN_1);
 753              		.loc 1 202 5
 754 0012 37150140 		li	a0,1073811456
 755              		.loc 1 203 1
 202:main.c        ****     gpio_init(GPIOB, GPIO_MODE_OUT_PP, GPIO_OSPEED_50MHZ, GPIO_PIN_0 | GPIO_PIN_1);
 756              		.loc 1 202 5
 757 0016 8D46     		li	a3,3
 758 0018 0D46     		li	a2,3
 759 001a C145     		li	a1,16
 760 001c 130505C0 		addi	a0,a0,-1024
 761              		.loc 1 203 1
 762 0020 4101     		addi	sp,sp,16
 763              	.LCFI8:
 764              		.cfi_def_cfa_offset 0
 202:main.c        ****     gpio_init(GPIOB, GPIO_MODE_OUT_PP, GPIO_OSPEED_50MHZ, GPIO_PIN_0 | GPIO_PIN_1);
 765              		.loc 1 202 5
 766 0022 17030000 		tail	gpio_init
 766      67000300 
 767              	.LVL84:
 768              		.cfi_endproc
 769              	.LFE9:
 771              		.section	.text.led_on_B1,"ax",@progbits
 772              		.align	1
 773              		.globl	led_on_B1
 775              	led_on_B1:
 776              	.LFB10:
 204:main.c        **** 
 205:main.c        **** void led_on_B1(){
 777              		.loc 1 205 17 is_stmt 1
 778              		.cfi_startproc
 206:main.c        ****     gpio_bit_write(GPIOB, GPIO_PIN_1, 1);
 779              		.loc 1 206 5
 780 0000 37150140 		li	a0,1073811456
 781 0004 0546     		li	a2,1
 782 0006 8945     		li	a1,2
 783 0008 130505C0 		addi	a0,a0,-1024
 784 000c 17030000 		tail	gpio_bit_write
 784      67000300 
 785              	.LVL85:
 786              		.cfi_endproc
 787              	.LFE10:
 789              		.section	.text.led_off_B1,"ax",@progbits
 790              		.align	1
 791              		.globl	led_off_B1
 793              	led_off_B1:
GAS LISTING C:\Users\Jesper\AppData\Local\Temp\cc4647b3.s 			page 21


 794              	.LFB11:
 207:main.c        **** }
 208:main.c        **** void led_off_B1(){
 795              		.loc 1 208 18
 796              		.cfi_startproc
 209:main.c        ****     gpio_bit_write(GPIOB, GPIO_PIN_1, 0);
 797              		.loc 1 209 5
 798 0000 37150140 		li	a0,1073811456
 799 0004 0146     		li	a2,0
 800 0006 8945     		li	a1,2
 801 0008 130505C0 		addi	a0,a0,-1024
 802 000c 17030000 		tail	gpio_bit_write
 802      67000300 
 803              	.LVL86:
 804              		.cfi_endproc
 805              	.LFE11:
 807              		.section	.text.led_on_B0,"ax",@progbits
 808              		.align	1
 809              		.globl	led_on_B0
 811              	led_on_B0:
 812              	.LFB12:
 210:main.c        **** }
 211:main.c        **** 
 212:main.c        **** void led_on_B0(){
 813              		.loc 1 212 17
 814              		.cfi_startproc
 213:main.c        ****     gpio_bit_write(GPIOB, GPIO_PIN_0, 1);
 815              		.loc 1 213 5
 816 0000 37150140 		li	a0,1073811456
 817 0004 0546     		li	a2,1
 818 0006 8545     		li	a1,1
 819 0008 130505C0 		addi	a0,a0,-1024
 820 000c 17030000 		tail	gpio_bit_write
 820      67000300 
 821              	.LVL87:
 822              		.cfi_endproc
 823              	.LFE12:
 825              		.section	.text.led_off_B0,"ax",@progbits
 826              		.align	1
 827              		.globl	led_off_B0
 829              	led_off_B0:
 830              	.LFB13:
 214:main.c        **** }
 215:main.c        **** void led_off_B0(){
 831              		.loc 1 215 18
 832              		.cfi_startproc
 216:main.c        ****     gpio_bit_write(GPIOB, GPIO_PIN_0, 0);
 833              		.loc 1 216 5
 834 0000 37150140 		li	a0,1073811456
 835 0004 0146     		li	a2,0
 836 0006 8545     		li	a1,1
 837 0008 130505C0 		addi	a0,a0,-1024
 838 000c 17030000 		tail	gpio_bit_write
 838      67000300 
 839              	.LVL88:
 840              		.cfi_endproc
 841              	.LFE13:
GAS LISTING C:\Users\Jesper\AppData\Local\Temp\cc4647b3.s 			page 22


 843              		.section	.text.led_on_off_B1,"ax",@progbits
 844              		.align	1
 845              		.globl	led_on_off_B1
 847              	led_on_off_B1:
 848              	.LFB14:
 217:main.c        **** }
 218:main.c        **** void led_on_off_B1(int on_off){
 849              		.loc 1 218 31
 850              		.cfi_startproc
 851              	.LVL89:
 219:main.c        ****     gpio_bit_write(GPIOB, GPIO_PIN_1, on_off);
 852              		.loc 1 219 5
 853 0000 2A86     		mv	a2,a0
 854 0002 37150140 		li	a0,1073811456
 855              	.LVL90:
 856 0006 8945     		li	a1,2
 857 0008 130505C0 		addi	a0,a0,-1024
 858 000c 17030000 		tail	gpio_bit_write
 858      67000300 
 859              	.LVL91:
 860              		.cfi_endproc
 861              	.LFE14:
 863              		.section	.text.init_mpu,"ax",@progbits
 864              		.align	1
 865              		.globl	init_mpu
 867              	init_mpu:
 868              	.LFB15:
 220:main.c        **** }
 221:main.c        **** 
 222:main.c        **** void init_mpu(void){
 869              		.loc 1 222 20
 870              		.cfi_startproc
 223:main.c        ****     rcu_periph_clock_enable(RCU_GPIOB);
 871              		.loc 1 223 5
 222:main.c        ****     rcu_periph_clock_enable(RCU_GPIOB);
 872              		.loc 1 222 20 is_stmt 0
 873 0000 4111     		addi	sp,sp,-16
 874              	.LCFI9:
 875              		.cfi_def_cfa_offset 16
 876              		.loc 1 223 5
 877 0002 13053060 		li	a0,1539
 222:main.c        ****     rcu_periph_clock_enable(RCU_GPIOB);
 878              		.loc 1 222 20
 879 0006 06C6     		sw	ra,12(sp)
 880              		.cfi_offset 1, -4
 881              		.loc 1 223 5
 882 0008 97000000 		call	rcu_periph_clock_enable
 882      E7800000 
 883              	.LVL92:
 224:main.c        ****     rcu_periph_clock_enable(RCU_I2C0);
 884              		.loc 1 224 5 is_stmt 1
 885 0010 13055071 		li	a0,1813
 886 0014 97000000 		call	rcu_periph_clock_enable
 886      E7800000 
 887              	.LVL93:
 225:main.c        ****     gpio_init(GPIOB, GPIO_MODE_AF_OD, GPIO_OSPEED_50MHZ, GPIO_PIN_6 | GPIO_PIN_7); //led?
 888              		.loc 1 225 5
GAS LISTING C:\Users\Jesper\AppData\Local\Temp\cc4647b3.s 			page 23


 889 001c 37150140 		li	a0,1073811456
 890 0020 9306000C 		li	a3,192
 891 0024 0D46     		li	a2,3
 892 0026 F145     		li	a1,28
 893 0028 130505C0 		addi	a0,a0,-1024
 894 002c 97000000 		call	gpio_init
 894      E7800000 
 895              	.LVL94:
 226:main.c        **** 
 227:main.c        ****     mpu6500_install(I2C0);
 896              		.loc 1 227 5
 897 0034 37550040 		li	a0,1073762304
 898 0038 13050540 		addi	a0,a0,1024
 899 003c 97000000 		call	mpu6500_install
 899      E7800000 
 900              	.LVL95:
 228:main.c        **** 
 229:main.c        ****     delay_1ms(100);   
 901              		.loc 1 229 5
 230:main.c        **** }
 902              		.loc 1 230 1 is_stmt 0
 903 0044 B240     		lw	ra,12(sp)
 904              		.cfi_restore 1
 229:main.c        **** }
 905              		.loc 1 229 5
 906 0046 13054006 		li	a0,100
 907              		.loc 1 230 1
 908 004a 4101     		addi	sp,sp,16
 909              	.LCFI10:
 910              		.cfi_def_cfa_offset 0
 229:main.c        **** }
 911              		.loc 1 229 5
 912 004c 17030000 		tail	delay_1ms
 912      67000300 
 913              	.LVL96:
 914              		.cfi_endproc
 915              	.LFE15:
 917              		.section	.text.timer_interrupt_config,"ax",@progbits
 918              		.align	1
 919              		.globl	timer_interrupt_config
 921              	timer_interrupt_config:
 922              	.LFB16:
 231:main.c        **** 
 232:main.c        **** void timer_interrupt_config(){
 923              		.loc 1 232 30 is_stmt 1
 924              		.cfi_startproc
 233:main.c        ****     /* This configuration has a lot in common with the PWM configuration since both relies on a tim
 234:main.c        ****        this time though instead of generating a puls each timer period we get an interrupt. This ex
 235:main.c        ****        generates an interrupt each millisecond to update a counter and when an even count of 1000 (
 236:main.c        ****        the interrupt will toggle an LED. */
 237:main.c        **** 
 238:main.c        ****     /* Configuration structs */ 
 239:main.c        ****     timer_oc_parameter_struct timer_ocinitpara;
 925              		.loc 1 239 5
 240:main.c        ****     timer_parameter_struct timer_initpara;
 926              		.loc 1 240 5
 241:main.c        **** 
GAS LISTING C:\Users\Jesper\AppData\Local\Temp\cc4647b3.s 			page 24


 242:main.c        ****     /* Enable the TIMER1 interrupt request */
 243:main.c        ****     eclic_irq_enable(TIMER1_IRQn,1,0);
 927              		.loc 1 243 5
 232:main.c        ****     /* This configuration has a lot in common with the PWM configuration since both relies on a tim
 928              		.loc 1 232 30 is_stmt 0
 929 0000 7971     		addi	sp,sp,-48
 930              	.LCFI11:
 931              		.cfi_def_cfa_offset 48
 932              		.loc 1 243 5
 933 0002 0146     		li	a2,0
 934 0004 8545     		li	a1,1
 935 0006 1305F002 		li	a0,47
 232:main.c        ****     /* This configuration has a lot in common with the PWM configuration since both relies on a tim
 936              		.loc 1 232 30
 937 000a 06D6     		sw	ra,44(sp)
 938 000c 22D4     		sw	s0,40(sp)
 939              		.cfi_offset 1, -4
 940              		.cfi_offset 8, -8
 941              		.loc 1 243 5
 942 000e 97000000 		call	eclic_irq_enable
 942      E7800000 
 943              	.LVL97:
 244:main.c        ****     
 245:main.c        ****     /* Enable the peripheral clock. */
 246:main.c        ****     rcu_periph_clock_enable(RCU_TIMER1);
 944              		.loc 1 246 5 is_stmt 1
 945 0016 13050070 		li	a0,1792
 946 001a 97000000 		call	rcu_periph_clock_enable
 946      E7800000 
 947              	.LVL98:
 247:main.c        **** 
 248:main.c        ****     /* Reset the timer */
 249:main.c        ****     timer_deinit(TIMER1);
 948              		.loc 1 249 5
 949 0022 37050040 		li	a0,1073741824
 950 0026 97000000 		call	timer_deinit
 950      E7800000 
 951              	.LVL99:
 250:main.c        **** 
 251:main.c        ****     /* initialize timer configuration struct */
 252:main.c        ****     timer_struct_para_init(&timer_initpara);
 952              		.loc 1 252 5
 953 002e 0808     		addi	a0,sp,16
 954 0030 97000000 		call	timer_struct_para_init
 954      E7800000 
 955              	.LVL100:
 253:main.c        ****     /* TIMER1 configuration */
 254:main.c        ****     /* Frequency = core clock / ((1+prescaler)*period) = 96MHz / (40 * 48000) = 50Hz */
 255:main.c        ****     
 256:main.c        ****     uint32_t period = SystemCoreClock / (DESIRED_FREQUENCY_HZ * 2);
 956              		.loc 1 256 5
 957              		.loc 1 256 39 is_stmt 0
 958 0038 37040000 		lui	s0,%hi(SystemCoreClock)
 959              		.loc 1 256 14
 960 003c 83270400 		lw	a5,%lo(SystemCoreClock)(s0)
 961 0040 1307007D 		li	a4,2000
 257:main.c        ****     timer_initpara.prescaler         = 39;
GAS LISTING C:\Users\Jesper\AppData\Local\Temp\cc4647b3.s 			page 25


 258:main.c        ****     timer_initpara.alignedmode       = TIMER_COUNTER_EDGE;
 259:main.c        ****     timer_initpara.counterdirection  = TIMER_COUNTER_UP;
 260:main.c        ****     timer_initpara.period            = period;
 261:main.c        ****     timer_initpara.clockdivision     = TIMER_CKDIV_DIV1;
 262:main.c        ****     timer_init(TIMER1, &timer_initpara);
 962              		.loc 1 262 5
 963 0044 0C08     		addi	a1,sp,16
 256:main.c        ****     timer_initpara.prescaler         = 39;
 964              		.loc 1 256 14
 965 0046 B3D7E702 		divu	a5,a5,a4
 966              	.LVL101:
 257:main.c        ****     timer_initpara.prescaler         = 39;
 967              		.loc 1 257 5 is_stmt 1
 258:main.c        ****     timer_initpara.counterdirection  = TIMER_COUNTER_UP;
 968              		.loc 1 258 5
 259:main.c        ****     timer_initpara.period            = period;
 969              		.loc 1 259 5
 970              		.loc 1 262 5 is_stmt 0
 971 004a 37050040 		li	a0,1073741824
 257:main.c        ****     timer_initpara.alignedmode       = TIMER_COUNTER_EDGE;
 972              		.loc 1 257 38
 973 004e 13077002 		li	a4,39
 974 0052 3AC8     		sw	a4,16(sp)
 259:main.c        ****     timer_initpara.period            = period;
 975              		.loc 1 259 38
 976 0054 231A0100 		sh	zero,20(sp)
 260:main.c        ****     timer_initpara.clockdivision     = TIMER_CKDIV_DIV1;
 977              		.loc 1 260 5 is_stmt 1
 261:main.c        ****     timer_init(TIMER1, &timer_initpara);
 978              		.loc 1 261 38 is_stmt 0
 979 0058 231E0100 		sh	zero,28(sp)
 260:main.c        ****     timer_initpara.clockdivision     = TIMER_CKDIV_DIV1;
 980              		.loc 1 260 38
 981 005c 3ECC     		sw	a5,24(sp)
 261:main.c        ****     timer_init(TIMER1, &timer_initpara);
 982              		.loc 1 261 5 is_stmt 1
 983              		.loc 1 262 5
 984 005e 97000000 		call	timer_init
 984      E7800000 
 985              	.LVL102:
 263:main.c        **** 
 264:main.c        ****     /* initialize TIMER channel output parameter struct */
 265:main.c        ****     timer_channel_output_struct_para_init(&timer_ocinitpara);
 986              		.loc 1 265 5
 987 0066 4800     		addi	a0,sp,4
 988 0068 97000000 		call	timer_channel_output_struct_para_init
 988      E7800000 
 989              	.LVL103:
 266:main.c        **** 
 267:main.c        ****     /* Set the channel configuration */
 268:main.c        ****     timer_ocinitpara.outputstate  = TIMER_CCX_ENABLE;
 990              		.loc 1 268 5
 991              		.loc 1 268 35 is_stmt 0
 992 0070 8547     		li	a5,1
 269:main.c        ****     timer_ocinitpara.ocpolarity   = TIMER_OC_POLARITY_HIGH;
 270:main.c        ****     timer_ocinitpara.ocidlestate  = TIMER_OC_IDLE_STATE_LOW;
 271:main.c        ****     timer_channel_output_config(TIMER1, TIMER_CH_0, &timer_ocinitpara);
GAS LISTING C:\Users\Jesper\AppData\Local\Temp\cc4647b3.s 			page 26


 993              		.loc 1 271 5
 994 0072 5000     		addi	a2,sp,4
 995 0074 8145     		li	a1,0
 996 0076 37050040 		li	a0,1073741824
 268:main.c        ****     timer_ocinitpara.ocpolarity   = TIMER_OC_POLARITY_HIGH;
 997              		.loc 1 268 35
 998 007a 2312F100 		sh	a5,4(sp)
 269:main.c        ****     timer_ocinitpara.ocpolarity   = TIMER_OC_POLARITY_HIGH;
 999              		.loc 1 269 5 is_stmt 1
 269:main.c        ****     timer_ocinitpara.ocpolarity   = TIMER_OC_POLARITY_HIGH;
 1000              		.loc 1 269 35 is_stmt 0
 1001 007e 23140100 		sh	zero,8(sp)
 270:main.c        ****     timer_channel_output_config(TIMER1, TIMER_CH_0, &timer_ocinitpara);
 1002              		.loc 1 270 5 is_stmt 1
 270:main.c        ****     timer_channel_output_config(TIMER1, TIMER_CH_0, &timer_ocinitpara);
 1003              		.loc 1 270 35 is_stmt 0
 1004 0082 23160100 		sh	zero,12(sp)
 1005              		.loc 1 271 5 is_stmt 1
 1006 0086 97000000 		call	timer_channel_output_config
 1006      E7800000 
 1007              	.LVL104:
 272:main.c        ****     
 273:main.c        ****     /* CH0 configuration in OC timing mode */
 274:main.c        ****     timer_channel_output_pulse_value_config(TIMER1, TIMER_CH_0, SystemCoreClock/4000);
 1008              		.loc 1 274 5
 1009 008e 03260400 		lw	a2,%lo(SystemCoreClock)(s0)
 1010 0092 8567     		li	a5,4096
 1011 0094 938707FA 		addi	a5,a5,-96
 1012 0098 3356F602 		divu	a2,a2,a5
 1013 009c 8145     		li	a1,0
 1014 009e 37050040 		li	a0,1073741824
 1015 00a2 97000000 		call	timer_channel_output_pulse_value_config
 1015      E7800000 
 1016              	.LVL105:
 275:main.c        ****     timer_channel_output_mode_config(TIMER1, TIMER_CH_0, TIMER_OC_MODE_TIMING);
 1017              		.loc 1 275 5
 1018 00aa 0146     		li	a2,0
 1019 00ac 8145     		li	a1,0
 1020 00ae 37050040 		li	a0,1073741824
 1021 00b2 97000000 		call	timer_channel_output_mode_config
 1021      E7800000 
 1022              	.LVL106:
 276:main.c        ****     timer_channel_output_shadow_config(TIMER1, TIMER_CH_0, TIMER_OC_SHADOW_DISABLE);
 1023              		.loc 1 276 5
 1024 00ba 0146     		li	a2,0
 1025 00bc 8145     		li	a1,0
 1026 00be 37050040 		li	a0,1073741824
 1027 00c2 97000000 		call	timer_channel_output_shadow_config
 1027      E7800000 
 1028              	.LVL107:
 277:main.c        **** 
 278:main.c        ****     /* Enable interrupt on the channel */
 279:main.c        ****     timer_interrupt_enable(TIMER1, TIMER_INT_CH0);
 1029              		.loc 1 279 5
 1030 00ca 8945     		li	a1,2
 1031 00cc 37050040 		li	a0,1073741824
 1032 00d0 97000000 		call	timer_interrupt_enable
GAS LISTING C:\Users\Jesper\AppData\Local\Temp\cc4647b3.s 			page 27


 1032      E7800000 
 1033              	.LVL108:
 280:main.c        ****     /* Make sure interrupt flag is clear */
 281:main.c        ****     timer_interrupt_flag_clear(TIMER1, TIMER_INT_CH0);
 1034              		.loc 1 281 5
 1035 00d8 8945     		li	a1,2
 1036 00da 37050040 		li	a0,1073741824
 1037 00de 97000000 		call	timer_interrupt_flag_clear
 1037      E7800000 
 1038              	.LVL109:
 282:main.c        **** 
 283:main.c        ****     /* Start the timer */
 284:main.c        ****     timer_enable(TIMER1);
 1039              		.loc 1 284 5
 1040 00e6 37050040 		li	a0,1073741824
 1041 00ea 97000000 		call	timer_enable
 1041      E7800000 
 1042              	.LVL110:
 285:main.c        **** }
 1043              		.loc 1 285 1 is_stmt 0
 1044 00f2 B250     		lw	ra,44(sp)
 1045              		.cfi_restore 1
 1046 00f4 2254     		lw	s0,40(sp)
 1047              		.cfi_restore 8
 1048 00f6 4561     		addi	sp,sp,48
 1049              	.LCFI12:
 1050              		.cfi_def_cfa_offset 0
 1051 00f8 8280     		jr	ra
 1052              		.cfi_endproc
 1053              	.LFE16:
 1055              		.section	.text.int_to_string,"ax",@progbits
 1056              		.align	1
 1057              		.globl	int_to_string
 1059              	int_to_string:
 1060              	.LFB17:
 286:main.c        **** 
 287:main.c        **** int int_to_string(char *string, int integer){
 1061              		.loc 1 287 45 is_stmt 1
 1062              		.cfi_startproc
 1063              	.LVL111:
 288:main.c        ****     int i = 0;
 1064              		.loc 1 288 5
 289:main.c        ****     int divider = 1000;
 1065              		.loc 1 289 5
 290:main.c        ****     if(integer < 0){
 1066              		.loc 1 290 5
 287:main.c        ****     int i = 0;
 1067              		.loc 1 287 45 is_stmt 0
 1068 0000 AA87     		mv	a5,a0
 1069              		.loc 1 290 7
 1070 0002 63D30506 		bge	a1,zero,.L37
 291:main.c        ****         string[i++] = '-';
 1071              		.loc 1 291 9 is_stmt 1
 1072              	.LVL112:
 1073              		.loc 1 291 21 is_stmt 0
 1074 0006 1307D002 		li	a4,45
 1075 000a 2300E500 		sb	a4,0(a0)
GAS LISTING C:\Users\Jesper\AppData\Local\Temp\cc4647b3.s 			page 28


 292:main.c        ****         integer = -integer;
 1076              		.loc 1 292 9 is_stmt 1
 1077              		.loc 1 292 17 is_stmt 0
 1078 000e B305B040 		neg	a1,a1
 1079              	.LVL113:
 291:main.c        ****         string[i++] = '-';
 1080              		.loc 1 291 17
 1081 0012 0547     		li	a4,1
 1082              	.LVL114:
 1083              	.L38:
 293:main.c        ****     }else if(integer == 0){
 294:main.c        ****         string[i++] = '0';
 295:main.c        ****         string[i++] = ';';
 296:main.c        ****         string[i] = '\0';
 297:main.c        ****         return i;
 298:main.c        ****     }
 299:main.c        ****     int og_num = integer;
 1084              		.loc 1 299 5 is_stmt 1
 300:main.c        ****     while (integer >= divider * 10) {
 1085              		.loc 1 300 5
 289:main.c        ****     if(integer < 0){
 1086              		.loc 1 289 9 is_stmt 0
 1087 0014 9306803E 		li	a3,1000
 1088              		.loc 1 300 31
 1089 0018 2945     		li	a0,10
 1090              	.LVL115:
 1091              	.L40:
 1092 001a 3386A602 		mul	a2,a3,a0
 1093              		.loc 1 300 11
 1094 001e 63D3C506 		ble	a2,a1,.L45
 1095 0022 2E85     		mv	a0,a1
 1096              	.LBB11:
 301:main.c        ****         divider *= 10; 
 302:main.c        ****     }
 303:main.c        **** 
 304:main.c        ****     while(divider){
 305:main.c        ****         char digit = (integer/divider)+ '0';
 306:main.c        ****         if(digit != '0' || og_num > integer){
 1097              		.loc 1 306 11
 1098 0024 93080003 		li	a7,48
 307:main.c        ****             string[i++] = digit; 
 308:main.c        ****         }
 309:main.c        ****         
 310:main.c        ****         integer %= divider;
 311:main.c        ****         divider /= 10;
 1099              		.loc 1 311 17
 1100 0028 2948     		li	a6,10
 1101              	.LVL116:
 1102              	.L43:
 305:main.c        ****         if(digit != '0' || og_num > integer){
 1103              		.loc 1 305 9 is_stmt 1
 305:main.c        ****         if(digit != '0' || og_num > integer){
 1104              		.loc 1 305 30 is_stmt 0
 1105 002a 3346D502 		div	a2,a0,a3
 305:main.c        ****         if(digit != '0' || og_num > integer){
 1106              		.loc 1 305 14
 1107 002e 13060603 		addi	a2,a2,48
GAS LISTING C:\Users\Jesper\AppData\Local\Temp\cc4647b3.s 			page 29


 1108 0032 1376F60F 		andi	a2,a2,0xff
 1109              	.LVL117:
 306:main.c        ****             string[i++] = digit; 
 1110              		.loc 1 306 9 is_stmt 1
 306:main.c        ****             string[i++] = digit; 
 1111              		.loc 1 306 11 is_stmt 0
 1112 0036 63141601 		bne	a2,a7,.L41
 306:main.c        ****             string[i++] = digit; 
 1113              		.loc 1 306 25 discriminator 1
 1114 003a 6357B500 		ble	a1,a0,.L42
 1115              	.L41:
 307:main.c        ****             string[i++] = digit; 
 1116              		.loc 1 307 13 is_stmt 1
 1117              	.LVL118:
 307:main.c        ****             string[i++] = digit; 
 1118              		.loc 1 307 25 is_stmt 0
 1119 003e 3383E700 		add	t1,a5,a4
 1120 0042 2300C300 		sb	a2,0(t1)
 307:main.c        ****             string[i++] = digit; 
 1121              		.loc 1 307 21
 1122 0046 0507     		addi	a4,a4,1
 1123              	.LVL119:
 1124              	.L42:
 310:main.c        ****         divider /= 10;
 1125              		.loc 1 310 9 is_stmt 1
 310:main.c        ****         divider /= 10;
 1126              		.loc 1 310 17 is_stmt 0
 1127 0048 3365D502 		rem	a0,a0,a3
 1128              	.LVL120:
 1129              		.loc 1 311 9 is_stmt 1
 1130              		.loc 1 311 17 is_stmt 0
 1131 004c B3C60603 		div	a3,a3,a6
 1132              	.LVL121:
 1133              	.LBE11:
 304:main.c        ****         char digit = (integer/divider)+ '0';
 1134              		.loc 1 304 10
 1135 0050 E9FE     		bne	a3,zero,.L43
 312:main.c        ****     }
 313:main.c        ****     string[i++] = ';';
 1136              		.loc 1 313 5 is_stmt 1
 1137              		.loc 1 313 13 is_stmt 0
 1138 0052 13051700 		addi	a0,a4,1
 1139              	.LVL122:
 1140              		.loc 1 313 17
 1141 0056 9306B003 		li	a3,59
 1142              	.LVL123:
 1143 005a 3E97     		add	a4,a5,a4
 1144 005c 2300D700 		sb	a3,0(a4)
 314:main.c        ****     string[i] = '\0';
 1145              		.loc 1 314 5 is_stmt 1
 1146              		.loc 1 314 15 is_stmt 0
 1147 0060 AA97     		add	a5,a5,a0
 1148              	.LVL124:
 1149 0062 23800700 		sb	zero,0(a5)
 315:main.c        ****     return i;
 1150              		.loc 1 315 5 is_stmt 1
 316:main.c        **** }
GAS LISTING C:\Users\Jesper\AppData\Local\Temp\cc4647b3.s 			page 30


 1151              		.loc 1 316 1 is_stmt 0
 1152 0066 8280     		ret
 1153              	.LVL125:
 1154              	.L37:
 293:main.c        ****         string[i++] = '0';
 1155              		.loc 1 293 11 is_stmt 1
 288:main.c        ****     int divider = 1000;
 1156              		.loc 1 288 9 is_stmt 0
 1157 0068 0147     		li	a4,0
 293:main.c        ****         string[i++] = '0';
 1158              		.loc 1 293 13
 1159 006a CDF5     		bne	a1,zero,.L38
 294:main.c        ****         string[i++] = ';';
 1160              		.loc 1 294 9 is_stmt 1
 1161              	.LVL126:
 294:main.c        ****         string[i++] = ';';
 1162              		.loc 1 294 21 is_stmt 0
 1163 006c 13070003 		li	a4,48
 1164 0070 2300E500 		sb	a4,0(a0)
 295:main.c        ****         string[i] = '\0';
 1165              		.loc 1 295 9 is_stmt 1
 1166              	.LVL127:
 295:main.c        ****         string[i] = '\0';
 1167              		.loc 1 295 21 is_stmt 0
 1168 0074 1307B003 		li	a4,59
 1169 0078 A300E500 		sb	a4,1(a0)
 296:main.c        ****         return i;
 1170              		.loc 1 296 9 is_stmt 1
 296:main.c        ****         return i;
 1171              		.loc 1 296 19 is_stmt 0
 1172 007c 23010500 		sb	zero,2(a0)
 297:main.c        ****     }
 1173              		.loc 1 297 9 is_stmt 1
 297:main.c        ****     }
 1174              		.loc 1 297 16 is_stmt 0
 1175 0080 0945     		li	a0,2
 1176              	.LVL128:
 1177 0082 8280     		ret
 1178              	.LVL129:
 1179              	.L45:
 1180 0084 B286     		mv	a3,a2
 1181              	.LVL130:
 1182 0086 51BF     		j	.L40
 1183              		.cfi_endproc
 1184              	.LFE17:
 1186              		.section	.text.append_int_to_string,"ax",@progbits
 1187              		.align	1
 1188              		.globl	append_int_to_string
 1190              	append_int_to_string:
 1191              	.LFB18:
 317:main.c        **** 
 318:main.c        **** int append_int_to_string(char *string, int integer){
 1192              		.loc 1 318 52 is_stmt 1
 1193              		.cfi_startproc
 1194              	.LVL131:
 319:main.c        ****     char temp[20] = {'\0'};
 1195              		.loc 1 319 5
GAS LISTING C:\Users\Jesper\AppData\Local\Temp\cc4647b3.s 			page 31


 318:main.c        ****     char temp[20] = {'\0'};
 1196              		.loc 1 318 52 is_stmt 0
 1197 0000 7971     		addi	sp,sp,-48
 1198              	.LCFI13:
 1199              		.cfi_def_cfa_offset 48
 1200 0002 22D4     		sw	s0,40(sp)
 1201              		.cfi_offset 8, -8
 1202 0004 2A84     		mv	s0,a0
 320:main.c        ****     int_to_string(temp, integer);
 1203              		.loc 1 320 5
 1204 0006 6800     		addi	a0,sp,12
 1205              	.LVL132:
 318:main.c        ****     char temp[20] = {'\0'};
 1206              		.loc 1 318 52
 1207 0008 06D6     		sw	ra,44(sp)
 1208              		.cfi_offset 1, -4
 319:main.c        ****     char temp[20] = {'\0'};
 1209              		.loc 1 319 10
 1210 000a 02C6     		sw	zero,12(sp)
 1211 000c 02C8     		sw	zero,16(sp)
 1212 000e 02CA     		sw	zero,20(sp)
 1213 0010 02CC     		sw	zero,24(sp)
 1214 0012 02CE     		sw	zero,28(sp)
 1215              		.loc 1 320 5 is_stmt 1
 1216 0014 97000000 		call	int_to_string
 1216      E7800000 
 1217              	.LVL133:
 321:main.c        ****     int len = fuseStrings(string, temp);
 1218              		.loc 1 321 5
 1219              		.loc 1 321 15 is_stmt 0
 1220 001c 6C00     		addi	a1,sp,12
 1221 001e 2285     		mv	a0,s0
 1222 0020 97000000 		call	fuseStrings
 1222      E7800000 
 1223              	.LVL134:
 322:main.c        ****     return len;
 1224              		.loc 1 322 5 is_stmt 1
 323:main.c        **** }
 1225              		.loc 1 323 1 is_stmt 0
 1226 0028 B250     		lw	ra,44(sp)
 1227              		.cfi_restore 1
 1228 002a 2254     		lw	s0,40(sp)
 1229              		.cfi_restore 8
 1230              	.LVL135:
 1231 002c 4561     		addi	sp,sp,48
 1232              	.LCFI14:
 1233              		.cfi_def_cfa_offset 0
 1234 002e 8280     		jr	ra
 1235              		.cfi_endproc
 1236              	.LFE18:
 1238              		.section	.text.append_newLine,"ax",@progbits
 1239              		.align	1
 1240              		.globl	append_newLine
 1242              	append_newLine:
 1243              	.LFB19:
 324:main.c        **** 
 325:main.c        **** void append_newLine(char *string, int length) {
GAS LISTING C:\Users\Jesper\AppData\Local\Temp\cc4647b3.s 			page 32


 1244              		.loc 1 325 47 is_stmt 1
 1245              		.cfi_startproc
 1246              	.LVL136:
 326:main.c        ****     string[length-1] = '\n';
 1247              		.loc 1 326 5
 1248              		.loc 1 326 22 is_stmt 0
 1249 0000 AA95     		add	a1,a0,a1
 1250              	.LVL137:
 1251 0002 A947     		li	a5,10
 1252 0004 A38FF5FE 		sb	a5,-1(a1)
 327:main.c        ****     string[length] = '\0'; // Add a null terminator at the new end
 1253              		.loc 1 327 5 is_stmt 1
 1254              		.loc 1 327 20 is_stmt 0
 1255 0008 23800500 		sb	zero,0(a1)
 328:main.c        **** }
 1256              		.loc 1 328 1
 1257 000c 8280     		ret
 1258              		.cfi_endproc
 1259              	.LFE19:
 1261              		.globl	__floatundidf
 1262              		.globl	__muldf3
 1263              		.globl	__floatunsidf
 1264              		.globl	__divdf3
 1265              		.globl	__fixdfsi
 1266              		.section	.text.millis,"ax",@progbits
 1267              		.align	1
 1268              		.globl	millis
 1270              	millis:
 1271              	.LFB20:
 329:main.c        **** 
 330:main.c        **** int millis(void) {
 1272              		.loc 1 330 18 is_stmt 1
 1273              		.cfi_startproc
 331:main.c        ****     uint64_t mtime = get_timer_value();
 1274              		.loc 1 331 5
 330:main.c        ****     uint64_t mtime = get_timer_value();
 1275              		.loc 1 330 18 is_stmt 0
 1276 0000 4111     		addi	sp,sp,-16
 1277              	.LCFI15:
 1278              		.cfi_def_cfa_offset 16
 1279 0002 06C6     		sw	ra,12(sp)
 1280 0004 22C4     		sw	s0,8(sp)
 1281 0006 26C2     		sw	s1,4(sp)
 1282              		.cfi_offset 1, -4
 1283              		.cfi_offset 8, -8
 1284              		.cfi_offset 9, -12
 1285              		.loc 1 331 22
 1286 0008 97000000 		call	get_timer_value
 1286      E7800000 
 1287              	.LVL138:
 332:main.c        ****     return ((mtime * 4000.0) / SystemCoreClock); // Adjusted for seconds and milliseconds
 1288              		.loc 1 332 5 is_stmt 1
 1289              		.loc 1 332 20 is_stmt 0
 1290 0010 97000000 		call	__floatundidf
 1290      E7800000 
 1291              	.LVL139:
 1292 0018 B7070000 		lui	a5,%hi(.LANCHOR0+176)
GAS LISTING C:\Users\Jesper\AppData\Local\Temp\cc4647b3.s 			page 33


 1293 001c 03A6070B 		lw	a2,%lo(.LANCHOR0+176)(a5)
 1294 0020 83A6470B 		lw	a3,%lo(.LANCHOR0+180)(a5)
 1295 0024 97000000 		call	__muldf3
 1295      E7800000 
 1296              	.LVL140:
 1297              		.loc 1 332 30
 1298 002c B7070000 		lui	a5,%hi(SystemCoreClock)
 1299              		.loc 1 332 20
 1300 0030 2A84     		mv	s0,a0
 1301              		.loc 1 332 30
 1302 0032 03A50700 		lw	a0,%lo(SystemCoreClock)(a5)
 1303              		.loc 1 332 20
 1304 0036 AE84     		mv	s1,a1
 1305              		.loc 1 332 30
 1306 0038 97000000 		call	__floatunsidf
 1306      E7800000 
 1307              	.LVL141:
 1308 0040 2A86     		mv	a2,a0
 1309 0042 AE86     		mv	a3,a1
 1310 0044 2285     		mv	a0,s0
 1311 0046 A685     		mv	a1,s1
 1312 0048 97000000 		call	__divdf3
 1312      E7800000 
 1313              	.LVL142:
 1314 0050 97000000 		call	__fixdfsi
 1314      E7800000 
 1315              	.LVL143:
 333:main.c        **** }
 1316              		.loc 1 333 1
 1317 0058 B240     		lw	ra,12(sp)
 1318              		.cfi_restore 1
 1319 005a 2244     		lw	s0,8(sp)
 1320              		.cfi_restore 8
 1321 005c 9244     		lw	s1,4(sp)
 1322              		.cfi_restore 9
 1323 005e 4101     		addi	sp,sp,16
 1324              	.LCFI16:
 1325              		.cfi_def_cfa_offset 0
 1326 0060 8280     		jr	ra
 1327              		.cfi_endproc
 1328              	.LFE20:
 1330              		.section	.rodata
 1331              		.align	3
 1332              		.set	.LANCHOR0,. + 0
 1333              	.LC0:
 1334 0000 0D0A7265 		.string	"\r\nready\r"
 1334      6164790D 
 1334      00
 1335 0009 000000   		.zero	3
 1336              	.LC1:
 1337 000c 74657374 		.string	"test"
 1337      00
 1338 0011 000000   		.zero	3
 1339              	.LC2:
 1340 0014 696E6974 		.string	"initiating MPU\r"
 1340      69617469 
 1340      6E67204D 
GAS LISTING C:\Users\Jesper\AppData\Local\Temp\cc4647b3.s 			page 34


 1340      50550D00 
 1341              	.LC3:
 1342 0024 4D505520 		.string	"MPU initiated\r"
 1342      696E6974 
 1342      69617465 
 1342      640D00
 1343 0033 00       		.zero	1
 1344              	.LC4:
 1345 0034 54444154 		.string	"TDATA.CSV"
 1345      412E4353 
 1345      5600
 1346 003e 0000     		.zero	2
 1347              	.LC5:
 1348 0040 72756E6E 		.string	"running\r"
 1348      696E670D 
 1348      00
 1349 0049 000000   		.zero	3
 1350              	.LC6:
 1351 004c 73746172 		.string	"start %s\r\n"
 1351      74202573 
 1351      0D0A00
 1352 0057 00       		.zero	1
 1353              	.LC7:
 1354 0058 257300   		.string	"%s"
 1355 005b 00       		.zero	1
 1356              	.LC8:
 1357 005c 436F6C6C 		.string	"Collecting data for gesture: %s, repetition %d\r\n"
 1357      65637469 
 1357      6E672064 
 1357      61746120 
 1357      666F7220 
 1358 008d 000000   		.zero	3
 1359              	.LC9:
 1360 0090 456D7074 		.string	"Emptying queue\r"
 1360      79696E67 
 1360      20717565 
 1360      75650D00 
 1361              	.LC10:
 1362 00a0 646F6E65 		.string	"done\r"
 1362      0D00
 1363 00a6 0000     		.zero	2
 1364              	.LC11:
 1365 00a8 0A00     		.string	"\n"
 1366 00aa 00000000 		.zero	6
 1366      0000
 1367              	.LC12:
 1368 00b0 00000000 		.word	0
 1369 00b4 0040AF40 		.word	1085227008
 1370              		.section	.data.current_label,"aw"
 1371              		.align	2
 1372              		.set	.LANCHOR2,. + 0
 1375              	current_label:
 1376 0000 69646C65 		.string	"idle"
 1376      00
 1377 0005 00000000 		.zero	5
 1377      00
 1378              		.section	.data.header,"aw"
GAS LISTING C:\Users\Jesper\AppData\Local\Temp\cc4647b3.s 			page 35


 1379              		.align	2
 1380              		.set	.LANCHOR3,. + 0
 1383              	header:
 1384 0000 582D6163 		.string	"X-acc;Y-acc;Z-acc;label\n"
 1384      633B592D 
 1384      6163633B 
 1384      5A2D6163 
 1384      633B6C61 
 1385              		.section	.data.labels,"aw"
 1386              		.align	2
 1387              		.set	.LANCHOR1,. + 0
 1390              	labels:
 1391 0000 69646C65 		.string	"idle"
 1391      00
 1392 0005 00000000 		.zero	5
 1392      00
 1393 000a 77617669 		.string	"waving"
 1393      6E6700
 1394 0011 000000   		.zero	3
 1395 0014 736C6964 		.string	"sliding"
 1395      696E6700 
 1396 001c 0000     		.zero	2
 1397              		.section	.sbss.last_Sample_buffer,"aw",@nobits
 1398              		.align	2
 1399              		.set	.LANCHOR5,. + 0
 1402              	last_Sample_buffer:
 1403 0000 00000000 		.zero	6
 1403      0000
 1404              		.section	.sbss.measurments_taken,"aw",@nobits
 1405              		.align	2
 1406              		.set	.LANCHOR4,. + 0
 1409              	measurments_taken:
 1410 0000 00000000 		.zero	4
 1411              		.section	.sdata.pDatabuffer,"aw"
 1412              		.align	2
 1415              	pDatabuffer:
 1416 0000 00000000 		.word	dataBuffer
 1417              		.text
 1418              	.Letext0:
 1419              		.file 2 "c:\\users\\jesper\\documents\\ml_sommarjobb\\toolchain-gd32v-v201-win\\toolchain-gd32v-v2
 1420              		.file 3 "c:\\users\\jesper\\documents\\ml_sommarjobb\\toolchain-gd32v-v201-win\\toolchain-gd32v-v2
 1421              		.file 4 "./../../firmware/GD32VF103_standard_peripheral/gd32vf103.h"
 1422              		.file 5 "./../../firmware/GD32VF103_standard_peripheral/Include/gd32vf103_rcu.h"
 1423              		.file 6 "./../../firmware/GD32VF103_standard_peripheral/Include/gd32vf103_timer.h"
 1424              		.file 7 "lib/usbcdc/include/drv_usb_regs.h"
 1425              		.file 8 "./../../firmware/GD32VF103_standard_peripheral/system_gd32vf103.h"
 1426              		.file 9 "lib/usbcdc/include/usb_ch9_std.h"
 1427              		.file 10 "lib/usbcdc/include/drv_usb_core.h"
 1428              		.file 11 "lib/usbcdc/include/drv_usb_dev.h"
 1429              		.file 12 "c:\\users\\jesper\\documents\\ml_sommarjobb\\toolchain-gd32v-v201-win\\toolchain-gd32v-v
 1430              		.file 13 "c:\\users\\jesper\\documents\\ml_sommarjobb\\toolchain-gd32v-v201-win\\toolchain-gd32v-v
 1431              		.file 14 "c:\\users\\jesper\\documents\\ml_sommarjobb\\toolchain-gd32v-v201-win\\toolchain-gd32v-v
 1432              		.file 15 "c:\\users\\jesper\\documents\\ml_sommarjobb\\toolchain-gd32v-v201-win\\toolchain-gd32v-v
 1433              		.file 16 "lib/usbcdc/include/cdc_acm_core.h"
 1434              		.file 17 "c:\\users\\jesper\\documents\\ml_sommarjobb\\toolchain-gd32v-v201-win\\toolchain-gd32v-v
 1435              		.file 18 "lib/usbcdc/include/usb_serial_if.h"
 1436              		.file 19 "lib/fatfs/include/ff.h"
GAS LISTING C:\Users\Jesper\AppData\Local\Temp\cc4647b3.s 			page 36


 1437              		.file 20 "lib/mpu/include/mpu6500_driver.h"
 1438              		.file 21 "lib/dma/include/dma.h"
 1439              		.file 22 "./../../firmware/RISCV/drivers/n200_func.h"
 1440              		.file 23 "lib/queue/include/queue.h"
 1441              		.file 24 "./../../firmware/GD32VF103_standard_peripheral/Include/gd32vf103_eclic.h"
 1442              		.file 25 "./../../firmware/GD32VF103_standard_peripheral/Include/gd32vf103_gpio.h"
 1443              		.file 26 "lib/mpu/include/gd32v_mpu6500_if.h"
 1444              		.file 27 "lib/systick/include/systick.h"
 1445              		.file 28 "c:\\users\\jesper\\documents\\ml_sommarjobb\\toolchain-gd32v-v201-win\\toolchain-gd32v-v
 1446              		.file 29 "c:\\users\\jesper\\documents\\ml_sommarjobb\\toolchain-gd32v-v201-win\\toolchain-gd32v-v
 1447              		.file 30 "lib/usbcdc/include/usb_delay.h"
 1448              		.file 31 "<built-in>"
 1449              		.file 32 "lib/fatfs/include/gd32v_tf_card_if.h"
GAS LISTING C:\Users\Jesper\AppData\Local\Temp\cc4647b3.s 			page 37


DEFINED SYMBOLS
                            *ABS*:0000000000000000 main.c
                            *COM*:0000000000000016 dataBuffer
C:\Users\Jesper\AppData\Local\Temp\cc4647b3.s:1402   .sbss.last_Sample_buffer:0000000000000000 last_Sample_buffer
C:\Users\Jesper\AppData\Local\Temp\cc4647b3.s:1383   .data.header:0000000000000000 header
C:\Users\Jesper\AppData\Local\Temp\cc4647b3.s:1390   .data.labels:0000000000000000 labels
C:\Users\Jesper\AppData\Local\Temp\cc4647b3.s:1415   .sdata.pDatabuffer:0000000000000000 pDatabuffer
C:\Users\Jesper\AppData\Local\Temp\cc4647b3.s:1409   .sbss.measurments_taken:0000000000000000 measurments_taken
C:\Users\Jesper\AppData\Local\Temp\cc4647b3.s:1375   .data.current_label:0000000000000000 current_label
C:\Users\Jesper\AppData\Local\Temp\cc4647b3.s:20     .text.startup.main:0000000000000000 main
C:\Users\Jesper\AppData\Local\Temp\cc4647b3.s:24     .text.startup.main:0000000000000000 .L0 
C:\Users\Jesper\AppData\Local\Temp\cc4647b3.s:25     .text.startup.main:0000000000000000 .L0 
C:\Users\Jesper\AppData\Local\Temp\cc4647b3.s:27     .text.startup.main:0000000000000000 .L0 
C:\Users\Jesper\AppData\Local\Temp\cc4647b3.s:28     .text.startup.main:0000000000000000 .L0 
C:\Users\Jesper\AppData\Local\Temp\cc4647b3.s:29     .text.startup.main:0000000000000000 .L0 
C:\Users\Jesper\AppData\Local\Temp\cc4647b3.s:30     .text.startup.main:0000000000000000 .L0 
C:\Users\Jesper\AppData\Local\Temp\cc4647b3.s:31     .text.startup.main:0000000000000000 .L0 
C:\Users\Jesper\AppData\Local\Temp\cc4647b3.s:33     .text.startup.main:0000000000000004 .L0 
C:\Users\Jesper\AppData\Local\Temp\cc4647b3.s:49     .text.startup.main:000000000000003c .L0 
C:\Users\Jesper\AppData\Local\Temp\cc4647b3.s:50     .text.startup.main:000000000000003c .L0 
C:\Users\Jesper\AppData\Local\Temp\cc4647b3.s:51     .text.startup.main:000000000000003c .L0 
C:\Users\Jesper\AppData\Local\Temp\cc4647b3.s:52     .text.startup.main:000000000000003c .L0 
C:\Users\Jesper\AppData\Local\Temp\cc4647b3.s:53     .text.startup.main:000000000000003c .L0 
C:\Users\Jesper\AppData\Local\Temp\cc4647b3.s:54     .text.startup.main:000000000000003c .L0 
C:\Users\Jesper\AppData\Local\Temp\cc4647b3.s:55     .text.startup.main:000000000000003c .L0 
C:\Users\Jesper\AppData\Local\Temp\cc4647b3.s:56     .text.startup.main:000000000000003c .L0 
C:\Users\Jesper\AppData\Local\Temp\cc4647b3.s:57     .text.startup.main:000000000000003c .L0 
C:\Users\Jesper\AppData\Local\Temp\cc4647b3.s:58     .text.startup.main:000000000000003c .L0 
C:\Users\Jesper\AppData\Local\Temp\cc4647b3.s:59     .text.startup.main:000000000000003c .L0 
C:\Users\Jesper\AppData\Local\Temp\cc4647b3.s:60     .text.startup.main:000000000000003c .L0 
C:\Users\Jesper\AppData\Local\Temp\cc4647b3.s:61     .text.startup.main:000000000000003c .L0 
C:\Users\Jesper\AppData\Local\Temp\cc4647b3.s:62     .text.startup.main:000000000000003c .L0 
C:\Users\Jesper\AppData\Local\Temp\cc4647b3.s:64     .text.startup.main:000000000000003c .L0 
C:\Users\Jesper\AppData\Local\Temp\cc4647b3.s:67     .text.startup.main:0000000000000044 .L0 
C:\Users\Jesper\AppData\Local\Temp\cc4647b3.s:72     .text.startup.main:000000000000004e .L0 
C:\Users\Jesper\AppData\Local\Temp\cc4647b3.s:73     .text.startup.main:000000000000004e .L0 
C:\Users\Jesper\AppData\Local\Temp\cc4647b3.s:76     .text.startup.main:0000000000000056 .L0 
C:\Users\Jesper\AppData\Local\Temp\cc4647b3.s:78     .text.startup.main:000000000000005a .L0 
C:\Users\Jesper\AppData\Local\Temp\cc4647b3.s:83     .text.startup.main:000000000000006a .L0 
C:\Users\Jesper\AppData\Local\Temp\cc4647b3.s:732    .text.ledInit:0000000000000000 ledInit
C:\Users\Jesper\AppData\Local\Temp\cc4647b3.s:86     .text.startup.main:0000000000000072 .L0 
C:\Users\Jesper\AppData\Local\Temp\cc4647b3.s:89     .text.startup.main:000000000000007a .L0 
C:\Users\Jesper\AppData\Local\Temp\cc4647b3.s:93     .text.startup.main:0000000000000084 .L0 
C:\Users\Jesper\AppData\Local\Temp\cc4647b3.s:94     .text.startup.main:0000000000000084 .L0 
C:\Users\Jesper\AppData\Local\Temp\cc4647b3.s:95     .text.startup.main:0000000000000084 .L0 
C:\Users\Jesper\AppData\Local\Temp\cc4647b3.s:96     .text.startup.main:0000000000000084 .L0 
C:\Users\Jesper\AppData\Local\Temp\cc4647b3.s:97     .text.startup.main:0000000000000084 .L0 
C:\Users\Jesper\AppData\Local\Temp\cc4647b3.s:98     .text.startup.main:0000000000000084 .L0 
C:\Users\Jesper\AppData\Local\Temp\cc4647b3.s:105    .text.startup.main:0000000000000092 .L0 
C:\Users\Jesper\AppData\Local\Temp\cc4647b3.s:107    .text.startup.main:0000000000000094 .L0 
C:\Users\Jesper\AppData\Local\Temp\cc4647b3.s:110    .text.startup.main:000000000000009c .L0 
C:\Users\Jesper\AppData\Local\Temp\cc4647b3.s:114    .text.startup.main:00000000000000a8 .L0 
C:\Users\Jesper\AppData\Local\Temp\cc4647b3.s:115    .text.startup.main:00000000000000a8 .L0 
C:\Users\Jesper\AppData\Local\Temp\cc4647b3.s:118    .text.startup.main:00000000000000ac .L0 
C:\Users\Jesper\AppData\Local\Temp\cc4647b3.s:120    .text.startup.main:00000000000000ae .L0 
C:\Users\Jesper\AppData\Local\Temp\cc4647b3.s:131    .text.startup.main:00000000000000ce .L0 
C:\Users\Jesper\AppData\Local\Temp\cc4647b3.s:133    .text.startup.main:00000000000000d0 .L0 
GAS LISTING C:\Users\Jesper\AppData\Local\Temp\cc4647b3.s 			page 38


C:\Users\Jesper\AppData\Local\Temp\cc4647b3.s:137    .text.startup.main:00000000000000dc .L0 
C:\Users\Jesper\AppData\Local\Temp\cc4647b3.s:138    .text.startup.main:00000000000000dc .L0 
C:\Users\Jesper\AppData\Local\Temp\cc4647b3.s:140    .text.startup.main:00000000000000e0 .L0 
C:\Users\Jesper\AppData\Local\Temp\cc4647b3.s:867    .text.init_mpu:0000000000000000 init_mpu
C:\Users\Jesper\AppData\Local\Temp\cc4647b3.s:144    .text.startup.main:00000000000000ec .L0 
C:\Users\Jesper\AppData\Local\Temp\cc4647b3.s:147    .text.startup.main:00000000000000f4 .L0 
C:\Users\Jesper\AppData\Local\Temp\cc4647b3.s:151    .text.startup.main:0000000000000100 .L0 
C:\Users\Jesper\AppData\Local\Temp\cc4647b3.s:155    .text.startup.main:000000000000010c .L0 
C:\Users\Jesper\AppData\Local\Temp\cc4647b3.s:157    .text.startup.main:000000000000010e .L0 
C:\Users\Jesper\AppData\Local\Temp\cc4647b3.s:159    .text.startup.main:0000000000000110 .L0 
C:\Users\Jesper\AppData\Local\Temp\cc4647b3.s:162    .text.startup.main:0000000000000118 .L0 
C:\Users\Jesper\AppData\Local\Temp\cc4647b3.s:163    .text.startup.main:0000000000000118 .L0 
C:\Users\Jesper\AppData\Local\Temp\cc4647b3.s:170    .text.startup.main:000000000000012c .L0 
C:\Users\Jesper\AppData\Local\Temp\cc4647b3.s:171    .text.startup.main:000000000000012c .L0 
C:\Users\Jesper\AppData\Local\Temp\cc4647b3.s:172    .text.startup.main:000000000000012c .L0 
C:\Users\Jesper\AppData\Local\Temp\cc4647b3.s:173    .text.startup.main:000000000000012c .L0 
C:\Users\Jesper\AppData\Local\Temp\cc4647b3.s:174    .text.startup.main:000000000000012c .L0 
C:\Users\Jesper\AppData\Local\Temp\cc4647b3.s:180    .text.startup.main:000000000000013c .L0 
C:\Users\Jesper\AppData\Local\Temp\cc4647b3.s:186    .text.startup.main:000000000000014a .L0 
C:\Users\Jesper\AppData\Local\Temp\cc4647b3.s:188    .text.startup.main:000000000000014c .L0 
C:\Users\Jesper\AppData\Local\Temp\cc4647b3.s:192    .text.startup.main:0000000000000156 .L0 
C:\Users\Jesper\AppData\Local\Temp\cc4647b3.s:193    .text.startup.main:0000000000000156 .L0 
C:\Users\Jesper\AppData\Local\Temp\cc4647b3.s:199    .text.startup.main:0000000000000166 .L0 
C:\Users\Jesper\AppData\Local\Temp\cc4647b3.s:201    .text.startup.main:0000000000000168 .L0 
C:\Users\Jesper\AppData\Local\Temp\cc4647b3.s:204    .text.startup.main:0000000000000170 .L0 
C:\Users\Jesper\AppData\Local\Temp\cc4647b3.s:208    .text.startup.main:000000000000017a .L0 
C:\Users\Jesper\AppData\Local\Temp\cc4647b3.s:212    .text.startup.main:0000000000000186 .L0 
C:\Users\Jesper\AppData\Local\Temp\cc4647b3.s:214    .text.startup.main:0000000000000186 .L0 
C:\Users\Jesper\AppData\Local\Temp\cc4647b3.s:216    .text.startup.main:0000000000000186 .L0 
C:\Users\Jesper\AppData\Local\Temp\cc4647b3.s:217    .text.startup.main:0000000000000186 .L0 
C:\Users\Jesper\AppData\Local\Temp\cc4647b3.s:222    .text.startup.main:0000000000000190 .L0 
C:\Users\Jesper\AppData\Local\Temp\cc4647b3.s:225    .text.startup.main:0000000000000196 .L0 
C:\Users\Jesper\AppData\Local\Temp\cc4647b3.s:227    .text.startup.main:000000000000019a .L0 
C:\Users\Jesper\AppData\Local\Temp\cc4647b3.s:235    .text.startup.main:00000000000001aa .L0 
C:\Users\Jesper\AppData\Local\Temp\cc4647b3.s:237    .text.startup.main:00000000000001ae .L0 
C:\Users\Jesper\AppData\Local\Temp\cc4647b3.s:239    .text.startup.main:00000000000001b0 .L0 
C:\Users\Jesper\AppData\Local\Temp\cc4647b3.s:244    .text.startup.main:00000000000001b6 .L0 
C:\Users\Jesper\AppData\Local\Temp\cc4647b3.s:246    .text.startup.main:00000000000001ba .L0 
C:\Users\Jesper\AppData\Local\Temp\cc4647b3.s:251    .text.startup.main:00000000000001bc .L0 
C:\Users\Jesper\AppData\Local\Temp\cc4647b3.s:256    .text.startup.main:00000000000001ca .L0 
C:\Users\Jesper\AppData\Local\Temp\cc4647b3.s:261    .text.startup.main:00000000000001d8 .L0 
C:\Users\Jesper\AppData\Local\Temp\cc4647b3.s:265    .text.startup.main:00000000000001e2 .L0 
C:\Users\Jesper\AppData\Local\Temp\cc4647b3.s:270    .text.startup.main:00000000000001f0 .L0 
C:\Users\Jesper\AppData\Local\Temp\cc4647b3.s:272    .text.startup.main:00000000000001f0 .L0 
C:\Users\Jesper\AppData\Local\Temp\cc4647b3.s:274    .text.startup.main:00000000000001f0 .L0 
C:\Users\Jesper\AppData\Local\Temp\cc4647b3.s:275    .text.startup.main:00000000000001f0 .L0 
C:\Users\Jesper\AppData\Local\Temp\cc4647b3.s:278    .text.startup.main:00000000000001f2 .L0 
C:\Users\Jesper\AppData\Local\Temp\cc4647b3.s:281    .text.startup.main:00000000000001f4 .L0 
C:\Users\Jesper\AppData\Local\Temp\cc4647b3.s:286    .text.startup.main:00000000000001f6 .L0 
C:\Users\Jesper\AppData\Local\Temp\cc4647b3.s:294    .text.startup.main:000000000000020e .L0 
C:\Users\Jesper\AppData\Local\Temp\cc4647b3.s:302    .text.startup.main:0000000000000222 .L0 
C:\Users\Jesper\AppData\Local\Temp\cc4647b3.s:307    .text.startup.main:0000000000000232 .L0 
C:\Users\Jesper\AppData\Local\Temp\cc4647b3.s:308    .text.startup.main:0000000000000232 .L0 
C:\Users\Jesper\AppData\Local\Temp\cc4647b3.s:921    .text.timer_interrupt_config:0000000000000000 timer_interrupt_config
C:\Users\Jesper\AppData\Local\Temp\cc4647b3.s:311    .text.startup.main:0000000000000236 .L0 
C:\Users\Jesper\AppData\Local\Temp\cc4647b3.s:314    .text.startup.main:000000000000023e .L0 
C:\Users\Jesper\AppData\Local\Temp\cc4647b3.s:317    .text.startup.main:0000000000000246 .L0 
GAS LISTING C:\Users\Jesper\AppData\Local\Temp\cc4647b3.s 			page 39


C:\Users\Jesper\AppData\Local\Temp\cc4647b3.s:321    .text.startup.main:000000000000024e .L0 
C:\Users\Jesper\AppData\Local\Temp\cc4647b3.s:327    .text.startup.main:000000000000025c .L0 
C:\Users\Jesper\AppData\Local\Temp\cc4647b3.s:329    .text.startup.main:0000000000000260 .L0 
C:\Users\Jesper\AppData\Local\Temp\cc4647b3.s:332    .text.startup.main:0000000000000262 .L0 
C:\Users\Jesper\AppData\Local\Temp\cc4647b3.s:336    .text.startup.main:000000000000026a .L0 
C:\Users\Jesper\AppData\Local\Temp\cc4647b3.s:339    .text.startup.main:0000000000000272 .L0 
C:\Users\Jesper\AppData\Local\Temp\cc4647b3.s:341    .text.startup.main:0000000000000274 .L0 
C:\Users\Jesper\AppData\Local\Temp\cc4647b3.s:347    .text.startup.main:0000000000000280 .L0 
C:\Users\Jesper\AppData\Local\Temp\cc4647b3.s:353    .text.startup.main:000000000000028c .L0 
C:\Users\Jesper\AppData\Local\Temp\cc4647b3.s:357    .text.startup.main:0000000000000298 .L0 
C:\Users\Jesper\AppData\Local\Temp\cc4647b3.s:362    .text.startup.main:00000000000002a6 .L0 
C:\Users\Jesper\AppData\Local\Temp\cc4647b3.s:363    .text.startup.main:00000000000002a6 .L0 
C:\Users\Jesper\AppData\Local\Temp\cc4647b3.s:370    .text.startup.main:00000000000002b4 .L0 
C:\Users\Jesper\AppData\Local\Temp\cc4647b3.s:376    .text.startup.main:00000000000002c2 .L0 
C:\Users\Jesper\AppData\Local\Temp\cc4647b3.s:384    .text.startup.main:00000000000002d6 .L0 
C:\Users\Jesper\AppData\Local\Temp\cc4647b3.s:386    .text.startup.main:00000000000002da .L0 
C:\Users\Jesper\AppData\Local\Temp\cc4647b3.s:387    .text.startup.main:00000000000002da .L0 
C:\Users\Jesper\AppData\Local\Temp\cc4647b3.s:390    .text.startup.main:00000000000002de .L0 
C:\Users\Jesper\AppData\Local\Temp\cc4647b3.s:393    .text.startup.main:00000000000002e0 .L0 
C:\Users\Jesper\AppData\Local\Temp\cc4647b3.s:398    .text.startup.main:00000000000002ec .L0 
C:\Users\Jesper\AppData\Local\Temp\cc4647b3.s:400    .text.startup.main:00000000000002f0 .L0 
C:\Users\Jesper\AppData\Local\Temp\cc4647b3.s:409    .text.startup.main:0000000000000308 .L0 
C:\Users\Jesper\AppData\Local\Temp\cc4647b3.s:414    .text.startup.main:0000000000000318 .L0 
C:\Users\Jesper\AppData\Local\Temp\cc4647b3.s:418    .text.startup.main:0000000000000322 .L0 
C:\Users\Jesper\AppData\Local\Temp\cc4647b3.s:420    .text.startup.main:0000000000000326 .L0 
C:\Users\Jesper\AppData\Local\Temp\cc4647b3.s:421    .text.startup.main:0000000000000326 .L0 
C:\Users\Jesper\AppData\Local\Temp\cc4647b3.s:423    .text.startup.main:000000000000032a .L0 
C:\Users\Jesper\AppData\Local\Temp\cc4647b3.s:426    .text.startup.main:0000000000000330 .L0 
C:\Users\Jesper\AppData\Local\Temp\cc4647b3.s:428    .text.startup.main:0000000000000334 .L0 
C:\Users\Jesper\AppData\Local\Temp\cc4647b3.s:430    .text.startup.main:0000000000000338 .L0 
C:\Users\Jesper\AppData\Local\Temp\cc4647b3.s:432    .text.startup.main:000000000000033c .L0 
C:\Users\Jesper\AppData\Local\Temp\cc4647b3.s:434    .text.startup.main:0000000000000340 .L0 
C:\Users\Jesper\AppData\Local\Temp\cc4647b3.s:436    .text.startup.main:0000000000000344 .L0 
C:\Users\Jesper\AppData\Local\Temp\cc4647b3.s:439    .text.startup.main:0000000000000348 .L0 
C:\Users\Jesper\AppData\Local\Temp\cc4647b3.s:441    .text.startup.main:000000000000034c .L0 
C:\Users\Jesper\AppData\Local\Temp\cc4647b3.s:444    .text.startup.main:0000000000000350 .L0 
C:\Users\Jesper\AppData\Local\Temp\cc4647b3.s:446    .text.startup.main:0000000000000354 .L0 
C:\Users\Jesper\AppData\Local\Temp\cc4647b3.s:448    .text.startup.main:0000000000000358 .L0 
C:\Users\Jesper\AppData\Local\Temp\cc4647b3.s:450    .text.startup.main:000000000000035c .L0 
C:\Users\Jesper\AppData\Local\Temp\cc4647b3.s:453    .text.startup.main:0000000000000360 .L0 
C:\Users\Jesper\AppData\Local\Temp\cc4647b3.s:458    .text.startup.main:0000000000000362 .L0 
C:\Users\Jesper\AppData\Local\Temp\cc4647b3.s:460    .text.startup.main:0000000000000362 .L0 
C:\Users\Jesper\AppData\Local\Temp\cc4647b3.s:469    .text.startup.main:0000000000000370 .L0 
C:\Users\Jesper\AppData\Local\Temp\cc4647b3.s:470    .text.startup.main:0000000000000370 .L0 
C:\Users\Jesper\AppData\Local\Temp\cc4647b3.s:472    .text.startup.main:0000000000000374 .L0 
C:\Users\Jesper\AppData\Local\Temp\cc4647b3.s:475    .text.startup.main:0000000000000376 .L0 
C:\Users\Jesper\AppData\Local\Temp\cc4647b3.s:476    .text.startup.main:0000000000000376 .L0 
C:\Users\Jesper\AppData\Local\Temp\cc4647b3.s:480    .text.startup.main:000000000000037e .L0 
C:\Users\Jesper\AppData\Local\Temp\cc4647b3.s:481    .text.startup.main:000000000000037e .L0 
C:\Users\Jesper\AppData\Local\Temp\cc4647b3.s:482    .text.startup.main:000000000000037e .L0 
C:\Users\Jesper\AppData\Local\Temp\cc4647b3.s:811    .text.led_on_B0:0000000000000000 led_on_B0
C:\Users\Jesper\AppData\Local\Temp\cc4647b3.s:484    .text.startup.main:0000000000000382 .L0 
C:\Users\Jesper\AppData\Local\Temp\cc4647b3.s:487    .text.startup.main:000000000000038a .L0 
C:\Users\Jesper\AppData\Local\Temp\cc4647b3.s:488    .text.startup.main:000000000000038a .L0 
C:\Users\Jesper\AppData\Local\Temp\cc4647b3.s:490    .text.startup.main:000000000000038c .L0 
C:\Users\Jesper\AppData\Local\Temp\cc4647b3.s:494    .text.startup.main:000000000000038e .L0 
C:\Users\Jesper\AppData\Local\Temp\cc4647b3.s:495    .text.startup.main:000000000000038e .L0 
GAS LISTING C:\Users\Jesper\AppData\Local\Temp\cc4647b3.s 			page 40


C:\Users\Jesper\AppData\Local\Temp\cc4647b3.s:498    .text.startup.main:0000000000000396 .L0 
C:\Users\Jesper\AppData\Local\Temp\cc4647b3.s:501    .text.startup.main:000000000000039c .L0 
C:\Users\Jesper\AppData\Local\Temp\cc4647b3.s:508    .text.startup.main:00000000000003ae .L0 
C:\Users\Jesper\AppData\Local\Temp\cc4647b3.s:512    .text.startup.main:00000000000003b8 .L0 
C:\Users\Jesper\AppData\Local\Temp\cc4647b3.s:513    .text.startup.main:00000000000003b8 .L0 
C:\Users\Jesper\AppData\Local\Temp\cc4647b3.s:518    .text.startup.main:00000000000003c4 .L0 
C:\Users\Jesper\AppData\Local\Temp\cc4647b3.s:520    .text.startup.main:00000000000003c8 .L0 
C:\Users\Jesper\AppData\Local\Temp\cc4647b3.s:530    .text.startup.main:00000000000003e2 .L0 
C:\Users\Jesper\AppData\Local\Temp\cc4647b3.s:829    .text.led_off_B0:0000000000000000 led_off_B0
C:\Users\Jesper\AppData\Local\Temp\cc4647b3.s:537    .text.startup.main:00000000000003ee .L0 
C:\Users\Jesper\AppData\Local\Temp\cc4647b3.s:540    .text.startup.main:00000000000003f6 .L0 
C:\Users\Jesper\AppData\Local\Temp\cc4647b3.s:541    .text.startup.main:00000000000003f6 .L0 
C:\Users\Jesper\AppData\Local\Temp\cc4647b3.s:543    .text.startup.main:00000000000003f8 .L0 
C:\Users\Jesper\AppData\Local\Temp\cc4647b3.s:550    .text.startup.main:00000000000003fc .L0 
C:\Users\Jesper\AppData\Local\Temp\cc4647b3.s:560    .text.startup.main:0000000000000416 .L0 
C:\Users\Jesper\AppData\Local\Temp\cc4647b3.s:564    .text.startup.main:0000000000000420 .L0 
C:\Users\Jesper\AppData\Local\Temp\cc4647b3.s:565    .text.startup.main:0000000000000420 .L0 
C:\Users\Jesper\AppData\Local\Temp\cc4647b3.s:567    .text.startup.main:0000000000000426 .L0 
C:\Users\Jesper\AppData\Local\Temp\cc4647b3.s:575    .text.TIMER1_IRQHandler:0000000000000000 TIMER1_IRQHandler
C:\Users\Jesper\AppData\Local\Temp\cc4647b3.s:578    .text.TIMER1_IRQHandler:0000000000000000 .L0 
C:\Users\Jesper\AppData\Local\Temp\cc4647b3.s:579    .text.TIMER1_IRQHandler:0000000000000000 .L0 
C:\Users\Jesper\AppData\Local\Temp\cc4647b3.s:580    .text.TIMER1_IRQHandler:0000000000000000 .L0 
C:\Users\Jesper\AppData\Local\Temp\cc4647b3.s:581    .text.TIMER1_IRQHandler:0000000000000000 .L0 
C:\Users\Jesper\AppData\Local\Temp\cc4647b3.s:583    .text.TIMER1_IRQHandler:0000000000000002 .L0 
C:\Users\Jesper\AppData\Local\Temp\cc4647b3.s:585    .text.TIMER1_IRQHandler:0000000000000004 .L0 
C:\Users\Jesper\AppData\Local\Temp\cc4647b3.s:587    .text.TIMER1_IRQHandler:0000000000000004 .L0 
C:\Users\Jesper\AppData\Local\Temp\cc4647b3.s:590    .text.TIMER1_IRQHandler:000000000000000c .L0 
C:\Users\Jesper\AppData\Local\Temp\cc4647b3.s:592    .text.TIMER1_IRQHandler:000000000000000e .L0 
C:\Users\Jesper\AppData\Local\Temp\cc4647b3.s:593    .text.TIMER1_IRQHandler:0000000000000010 .L0 
C:\Users\Jesper\AppData\Local\Temp\cc4647b3.s:595    .text.TIMER1_IRQHandler:0000000000000010 .L0 
C:\Users\Jesper\AppData\Local\Temp\cc4647b3.s:847    .text.led_on_off_B1:0000000000000000 led_on_off_B1
C:\Users\Jesper\AppData\Local\Temp\cc4647b3.s:600    .text.TIMER1_IRQHandler:000000000000001e .L0 
C:\Users\Jesper\AppData\Local\Temp\cc4647b3.s:601    .text.TIMER1_IRQHandler:000000000000001e .L0 
C:\Users\Jesper\AppData\Local\Temp\cc4647b3.s:607    .text.TIMER1_IRQHandler:000000000000002e .L0 
C:\Users\Jesper\AppData\Local\Temp\cc4647b3.s:608    .text.TIMER1_IRQHandler:000000000000002e .L0 
C:\Users\Jesper\AppData\Local\Temp\cc4647b3.s:609    .text.TIMER1_IRQHandler:000000000000002e .L0 
C:\Users\Jesper\AppData\Local\Temp\cc4647b3.s:611    .text.TIMER1_IRQHandler:0000000000000030 .L0 
C:\Users\Jesper\AppData\Local\Temp\cc4647b3.s:614    .text.TIMER1_IRQHandler:0000000000000036 .L0 
C:\Users\Jesper\AppData\Local\Temp\cc4647b3.s:617    .text.TIMER1_IRQHandler:000000000000003a .L0 
C:\Users\Jesper\AppData\Local\Temp\cc4647b3.s:618    .text.TIMER1_IRQHandler:000000000000003a .L0 
C:\Users\Jesper\AppData\Local\Temp\cc4647b3.s:619    .text.TIMER1_IRQHandler:000000000000003a .L0 
C:\Users\Jesper\AppData\Local\Temp\cc4647b3.s:620    .text.TIMER1_IRQHandler:000000000000003a .L0 
C:\Users\Jesper\AppData\Local\Temp\cc4647b3.s:623    .text.TIMER1_IRQHandler:0000000000000042 .L0 
C:\Users\Jesper\AppData\Local\Temp\cc4647b3.s:626    .text.TIMER1_IRQHandler:0000000000000048 .L0 
C:\Users\Jesper\AppData\Local\Temp\cc4647b3.s:630    .text.TIMER1_IRQHandler:0000000000000052 .L0 
C:\Users\Jesper\AppData\Local\Temp\cc4647b3.s:631    .text.TIMER1_IRQHandler:0000000000000052 .L0 
C:\Users\Jesper\AppData\Local\Temp\cc4647b3.s:633    .text.TIMER1_IRQHandler:0000000000000054 .L0 
C:\Users\Jesper\AppData\Local\Temp\cc4647b3.s:636    .text.TIMER1_IRQHandler:000000000000005c .L0 
C:\Users\Jesper\AppData\Local\Temp\cc4647b3.s:641    .text.TIMER1_IRQHandler:0000000000000068 .L0 
C:\Users\Jesper\AppData\Local\Temp\cc4647b3.s:643    .text.TIMER1_IRQHandler:000000000000006c .L0 
C:\Users\Jesper\AppData\Local\Temp\cc4647b3.s:644    .text.TIMER1_IRQHandler:000000000000006c .L0 
C:\Users\Jesper\AppData\Local\Temp\cc4647b3.s:650    .text.TIMER1_IRQHandler:000000000000007a .L0 
C:\Users\Jesper\AppData\Local\Temp\cc4647b3.s:652    .text.TIMER1_IRQHandler:000000000000007e .L0 
C:\Users\Jesper\AppData\Local\Temp\cc4647b3.s:653    .text.TIMER1_IRQHandler:000000000000007e .L0 
C:\Users\Jesper\AppData\Local\Temp\cc4647b3.s:659    .text.TIMER1_IRQHandler:000000000000008c .L0 
C:\Users\Jesper\AppData\Local\Temp\cc4647b3.s:661    .text.TIMER1_IRQHandler:0000000000000090 .L0 
C:\Users\Jesper\AppData\Local\Temp\cc4647b3.s:662    .text.TIMER1_IRQHandler:0000000000000090 .L0 
GAS LISTING C:\Users\Jesper\AppData\Local\Temp\cc4647b3.s 			page 41


C:\Users\Jesper\AppData\Local\Temp\cc4647b3.s:664    .text.TIMER1_IRQHandler:0000000000000094 .L0 
C:\Users\Jesper\AppData\Local\Temp\cc4647b3.s:1190   .text.append_int_to_string:0000000000000000 append_int_to_string
C:\Users\Jesper\AppData\Local\Temp\cc4647b3.s:670    .text.TIMER1_IRQHandler:00000000000000a2 .L0 
C:\Users\Jesper\AppData\Local\Temp\cc4647b3.s:671    .text.TIMER1_IRQHandler:00000000000000a2 .L0 
C:\Users\Jesper\AppData\Local\Temp\cc4647b3.s:673    .text.TIMER1_IRQHandler:00000000000000a6 .L0 
C:\Users\Jesper\AppData\Local\Temp\cc4647b3.s:679    .text.TIMER1_IRQHandler:00000000000000b4 .L0 
C:\Users\Jesper\AppData\Local\Temp\cc4647b3.s:680    .text.TIMER1_IRQHandler:00000000000000b4 .L0 
C:\Users\Jesper\AppData\Local\Temp\cc4647b3.s:682    .text.TIMER1_IRQHandler:00000000000000b8 .L0 
C:\Users\Jesper\AppData\Local\Temp\cc4647b3.s:688    .text.TIMER1_IRQHandler:00000000000000c6 .L0 
C:\Users\Jesper\AppData\Local\Temp\cc4647b3.s:689    .text.TIMER1_IRQHandler:00000000000000c6 .L0 
C:\Users\Jesper\AppData\Local\Temp\cc4647b3.s:693    .text.TIMER1_IRQHandler:00000000000000d0 .L0 
C:\Users\Jesper\AppData\Local\Temp\cc4647b3.s:701    .text.TIMER1_IRQHandler:00000000000000e8 .L0 
C:\Users\Jesper\AppData\Local\Temp\cc4647b3.s:707    .text.TIMER1_IRQHandler:00000000000000fa .L0 
C:\Users\Jesper\AppData\Local\Temp\cc4647b3.s:711    .text.TIMER1_IRQHandler:0000000000000104 .L0 
C:\Users\Jesper\AppData\Local\Temp\cc4647b3.s:717    .text.TIMER1_IRQHandler:0000000000000112 .L0 
C:\Users\Jesper\AppData\Local\Temp\cc4647b3.s:718    .text.TIMER1_IRQHandler:0000000000000114 .L0 
C:\Users\Jesper\AppData\Local\Temp\cc4647b3.s:720    .text.TIMER1_IRQHandler:0000000000000116 .L0 
C:\Users\Jesper\AppData\Local\Temp\cc4647b3.s:723    .text.TIMER1_IRQHandler:0000000000000118 .L0 
C:\Users\Jesper\AppData\Local\Temp\cc4647b3.s:725    .text.TIMER1_IRQHandler:000000000000011a .L0 
C:\Users\Jesper\AppData\Local\Temp\cc4647b3.s:735    .text.ledInit:0000000000000000 .L0 
C:\Users\Jesper\AppData\Local\Temp\cc4647b3.s:736    .text.ledInit:0000000000000000 .L0 
C:\Users\Jesper\AppData\Local\Temp\cc4647b3.s:737    .text.ledInit:0000000000000000 .L0 
C:\Users\Jesper\AppData\Local\Temp\cc4647b3.s:738    .text.ledInit:0000000000000000 .L0 
C:\Users\Jesper\AppData\Local\Temp\cc4647b3.s:740    .text.ledInit:0000000000000002 .L0 
C:\Users\Jesper\AppData\Local\Temp\cc4647b3.s:742    .text.ledInit:0000000000000002 .L0 
C:\Users\Jesper\AppData\Local\Temp\cc4647b3.s:744    .text.ledInit:0000000000000006 .L0 
C:\Users\Jesper\AppData\Local\Temp\cc4647b3.s:745    .text.ledInit:0000000000000008 .L0 
C:\Users\Jesper\AppData\Local\Temp\cc4647b3.s:747    .text.ledInit:0000000000000008 .L0 
C:\Users\Jesper\AppData\Local\Temp\cc4647b3.s:750    .text.ledInit:0000000000000010 .L0 
C:\Users\Jesper\AppData\Local\Temp\cc4647b3.s:751    .text.ledInit:0000000000000010 .L0 
C:\Users\Jesper\AppData\Local\Temp\cc4647b3.s:752    .text.ledInit:0000000000000012 .L0 
C:\Users\Jesper\AppData\Local\Temp\cc4647b3.s:754    .text.ledInit:0000000000000012 .L0 
C:\Users\Jesper\AppData\Local\Temp\cc4647b3.s:756    .text.ledInit:0000000000000016 .L0 
C:\Users\Jesper\AppData\Local\Temp\cc4647b3.s:757    .text.ledInit:0000000000000016 .L0 
C:\Users\Jesper\AppData\Local\Temp\cc4647b3.s:762    .text.ledInit:0000000000000020 .L0 
C:\Users\Jesper\AppData\Local\Temp\cc4647b3.s:764    .text.ledInit:0000000000000022 .L0 
C:\Users\Jesper\AppData\Local\Temp\cc4647b3.s:766    .text.ledInit:0000000000000022 .L0 
C:\Users\Jesper\AppData\Local\Temp\cc4647b3.s:768    .text.ledInit:000000000000002a .L0 
C:\Users\Jesper\AppData\Local\Temp\cc4647b3.s:775    .text.led_on_B1:0000000000000000 led_on_B1
C:\Users\Jesper\AppData\Local\Temp\cc4647b3.s:778    .text.led_on_B1:0000000000000000 .L0 
C:\Users\Jesper\AppData\Local\Temp\cc4647b3.s:779    .text.led_on_B1:0000000000000000 .L0 
C:\Users\Jesper\AppData\Local\Temp\cc4647b3.s:780    .text.led_on_B1:0000000000000000 .L0 
C:\Users\Jesper\AppData\Local\Temp\cc4647b3.s:786    .text.led_on_B1:0000000000000014 .L0 
C:\Users\Jesper\AppData\Local\Temp\cc4647b3.s:793    .text.led_off_B1:0000000000000000 led_off_B1
C:\Users\Jesper\AppData\Local\Temp\cc4647b3.s:796    .text.led_off_B1:0000000000000000 .L0 
C:\Users\Jesper\AppData\Local\Temp\cc4647b3.s:797    .text.led_off_B1:0000000000000000 .L0 
C:\Users\Jesper\AppData\Local\Temp\cc4647b3.s:798    .text.led_off_B1:0000000000000000 .L0 
C:\Users\Jesper\AppData\Local\Temp\cc4647b3.s:804    .text.led_off_B1:0000000000000014 .L0 
C:\Users\Jesper\AppData\Local\Temp\cc4647b3.s:814    .text.led_on_B0:0000000000000000 .L0 
C:\Users\Jesper\AppData\Local\Temp\cc4647b3.s:815    .text.led_on_B0:0000000000000000 .L0 
C:\Users\Jesper\AppData\Local\Temp\cc4647b3.s:816    .text.led_on_B0:0000000000000000 .L0 
C:\Users\Jesper\AppData\Local\Temp\cc4647b3.s:822    .text.led_on_B0:0000000000000014 .L0 
C:\Users\Jesper\AppData\Local\Temp\cc4647b3.s:832    .text.led_off_B0:0000000000000000 .L0 
C:\Users\Jesper\AppData\Local\Temp\cc4647b3.s:833    .text.led_off_B0:0000000000000000 .L0 
C:\Users\Jesper\AppData\Local\Temp\cc4647b3.s:834    .text.led_off_B0:0000000000000000 .L0 
C:\Users\Jesper\AppData\Local\Temp\cc4647b3.s:840    .text.led_off_B0:0000000000000014 .L0 
C:\Users\Jesper\AppData\Local\Temp\cc4647b3.s:850    .text.led_on_off_B1:0000000000000000 .L0 
GAS LISTING C:\Users\Jesper\AppData\Local\Temp\cc4647b3.s 			page 42


C:\Users\Jesper\AppData\Local\Temp\cc4647b3.s:852    .text.led_on_off_B1:0000000000000000 .L0 
C:\Users\Jesper\AppData\Local\Temp\cc4647b3.s:853    .text.led_on_off_B1:0000000000000000 .L0 
C:\Users\Jesper\AppData\Local\Temp\cc4647b3.s:860    .text.led_on_off_B1:0000000000000014 .L0 
C:\Users\Jesper\AppData\Local\Temp\cc4647b3.s:870    .text.init_mpu:0000000000000000 .L0 
C:\Users\Jesper\AppData\Local\Temp\cc4647b3.s:871    .text.init_mpu:0000000000000000 .L0 
C:\Users\Jesper\AppData\Local\Temp\cc4647b3.s:872    .text.init_mpu:0000000000000000 .L0 
C:\Users\Jesper\AppData\Local\Temp\cc4647b3.s:873    .text.init_mpu:0000000000000000 .L0 
C:\Users\Jesper\AppData\Local\Temp\cc4647b3.s:875    .text.init_mpu:0000000000000002 .L0 
C:\Users\Jesper\AppData\Local\Temp\cc4647b3.s:877    .text.init_mpu:0000000000000002 .L0 
C:\Users\Jesper\AppData\Local\Temp\cc4647b3.s:879    .text.init_mpu:0000000000000006 .L0 
C:\Users\Jesper\AppData\Local\Temp\cc4647b3.s:880    .text.init_mpu:0000000000000008 .L0 
C:\Users\Jesper\AppData\Local\Temp\cc4647b3.s:882    .text.init_mpu:0000000000000008 .L0 
C:\Users\Jesper\AppData\Local\Temp\cc4647b3.s:885    .text.init_mpu:0000000000000010 .L0 
C:\Users\Jesper\AppData\Local\Temp\cc4647b3.s:889    .text.init_mpu:000000000000001c .L0 
C:\Users\Jesper\AppData\Local\Temp\cc4647b3.s:897    .text.init_mpu:0000000000000034 .L0 
C:\Users\Jesper\AppData\Local\Temp\cc4647b3.s:902    .text.init_mpu:0000000000000044 .L0 
C:\Users\Jesper\AppData\Local\Temp\cc4647b3.s:903    .text.init_mpu:0000000000000044 .L0 
C:\Users\Jesper\AppData\Local\Temp\cc4647b3.s:904    .text.init_mpu:0000000000000046 .L0 
C:\Users\Jesper\AppData\Local\Temp\cc4647b3.s:906    .text.init_mpu:0000000000000046 .L0 
C:\Users\Jesper\AppData\Local\Temp\cc4647b3.s:908    .text.init_mpu:000000000000004a .L0 
C:\Users\Jesper\AppData\Local\Temp\cc4647b3.s:910    .text.init_mpu:000000000000004c .L0 
C:\Users\Jesper\AppData\Local\Temp\cc4647b3.s:912    .text.init_mpu:000000000000004c .L0 
C:\Users\Jesper\AppData\Local\Temp\cc4647b3.s:914    .text.init_mpu:0000000000000054 .L0 
C:\Users\Jesper\AppData\Local\Temp\cc4647b3.s:924    .text.timer_interrupt_config:0000000000000000 .L0 
C:\Users\Jesper\AppData\Local\Temp\cc4647b3.s:925    .text.timer_interrupt_config:0000000000000000 .L0 
C:\Users\Jesper\AppData\Local\Temp\cc4647b3.s:926    .text.timer_interrupt_config:0000000000000000 .L0 
C:\Users\Jesper\AppData\Local\Temp\cc4647b3.s:927    .text.timer_interrupt_config:0000000000000000 .L0 
C:\Users\Jesper\AppData\Local\Temp\cc4647b3.s:928    .text.timer_interrupt_config:0000000000000000 .L0 
C:\Users\Jesper\AppData\Local\Temp\cc4647b3.s:929    .text.timer_interrupt_config:0000000000000000 .L0 
C:\Users\Jesper\AppData\Local\Temp\cc4647b3.s:931    .text.timer_interrupt_config:0000000000000002 .L0 
C:\Users\Jesper\AppData\Local\Temp\cc4647b3.s:933    .text.timer_interrupt_config:0000000000000002 .L0 
C:\Users\Jesper\AppData\Local\Temp\cc4647b3.s:937    .text.timer_interrupt_config:000000000000000a .L0 
C:\Users\Jesper\AppData\Local\Temp\cc4647b3.s:939    .text.timer_interrupt_config:000000000000000e .L0 
C:\Users\Jesper\AppData\Local\Temp\cc4647b3.s:940    .text.timer_interrupt_config:000000000000000e .L0 
C:\Users\Jesper\AppData\Local\Temp\cc4647b3.s:942    .text.timer_interrupt_config:000000000000000e .L0 
C:\Users\Jesper\AppData\Local\Temp\cc4647b3.s:945    .text.timer_interrupt_config:0000000000000016 .L0 
C:\Users\Jesper\AppData\Local\Temp\cc4647b3.s:949    .text.timer_interrupt_config:0000000000000022 .L0 
C:\Users\Jesper\AppData\Local\Temp\cc4647b3.s:953    .text.timer_interrupt_config:000000000000002e .L0 
C:\Users\Jesper\AppData\Local\Temp\cc4647b3.s:957    .text.timer_interrupt_config:0000000000000038 .L0 
C:\Users\Jesper\AppData\Local\Temp\cc4647b3.s:958    .text.timer_interrupt_config:0000000000000038 .L0 
C:\Users\Jesper\AppData\Local\Temp\cc4647b3.s:960    .text.timer_interrupt_config:000000000000003c .L0 
C:\Users\Jesper\AppData\Local\Temp\cc4647b3.s:963    .text.timer_interrupt_config:0000000000000044 .L0 
C:\Users\Jesper\AppData\Local\Temp\cc4647b3.s:965    .text.timer_interrupt_config:0000000000000046 .L0 
C:\Users\Jesper\AppData\Local\Temp\cc4647b3.s:968    .text.timer_interrupt_config:000000000000004a .L0 
C:\Users\Jesper\AppData\Local\Temp\cc4647b3.s:969    .text.timer_interrupt_config:000000000000004a .L0 
C:\Users\Jesper\AppData\Local\Temp\cc4647b3.s:970    .text.timer_interrupt_config:000000000000004a .L0 
C:\Users\Jesper\AppData\Local\Temp\cc4647b3.s:971    .text.timer_interrupt_config:000000000000004a .L0 
C:\Users\Jesper\AppData\Local\Temp\cc4647b3.s:973    .text.timer_interrupt_config:000000000000004e .L0 
C:\Users\Jesper\AppData\Local\Temp\cc4647b3.s:976    .text.timer_interrupt_config:0000000000000054 .L0 
C:\Users\Jesper\AppData\Local\Temp\cc4647b3.s:978    .text.timer_interrupt_config:0000000000000058 .L0 
C:\Users\Jesper\AppData\Local\Temp\cc4647b3.s:979    .text.timer_interrupt_config:0000000000000058 .L0 
C:\Users\Jesper\AppData\Local\Temp\cc4647b3.s:981    .text.timer_interrupt_config:000000000000005c .L0 
C:\Users\Jesper\AppData\Local\Temp\cc4647b3.s:983    .text.timer_interrupt_config:000000000000005e .L0 
C:\Users\Jesper\AppData\Local\Temp\cc4647b3.s:984    .text.timer_interrupt_config:000000000000005e .L0 
C:\Users\Jesper\AppData\Local\Temp\cc4647b3.s:987    .text.timer_interrupt_config:0000000000000066 .L0 
C:\Users\Jesper\AppData\Local\Temp\cc4647b3.s:991    .text.timer_interrupt_config:0000000000000070 .L0 
C:\Users\Jesper\AppData\Local\Temp\cc4647b3.s:992    .text.timer_interrupt_config:0000000000000070 .L0 
GAS LISTING C:\Users\Jesper\AppData\Local\Temp\cc4647b3.s 			page 43


C:\Users\Jesper\AppData\Local\Temp\cc4647b3.s:994    .text.timer_interrupt_config:0000000000000072 .L0 
C:\Users\Jesper\AppData\Local\Temp\cc4647b3.s:998    .text.timer_interrupt_config:000000000000007a .L0 
C:\Users\Jesper\AppData\Local\Temp\cc4647b3.s:1000   .text.timer_interrupt_config:000000000000007e .L0 
C:\Users\Jesper\AppData\Local\Temp\cc4647b3.s:1001   .text.timer_interrupt_config:000000000000007e .L0 
C:\Users\Jesper\AppData\Local\Temp\cc4647b3.s:1003   .text.timer_interrupt_config:0000000000000082 .L0 
C:\Users\Jesper\AppData\Local\Temp\cc4647b3.s:1004   .text.timer_interrupt_config:0000000000000082 .L0 
C:\Users\Jesper\AppData\Local\Temp\cc4647b3.s:1006   .text.timer_interrupt_config:0000000000000086 .L0 
C:\Users\Jesper\AppData\Local\Temp\cc4647b3.s:1009   .text.timer_interrupt_config:000000000000008e .L0 
C:\Users\Jesper\AppData\Local\Temp\cc4647b3.s:1018   .text.timer_interrupt_config:00000000000000aa .L0 
C:\Users\Jesper\AppData\Local\Temp\cc4647b3.s:1024   .text.timer_interrupt_config:00000000000000ba .L0 
C:\Users\Jesper\AppData\Local\Temp\cc4647b3.s:1030   .text.timer_interrupt_config:00000000000000ca .L0 
C:\Users\Jesper\AppData\Local\Temp\cc4647b3.s:1035   .text.timer_interrupt_config:00000000000000d8 .L0 
C:\Users\Jesper\AppData\Local\Temp\cc4647b3.s:1040   .text.timer_interrupt_config:00000000000000e6 .L0 
C:\Users\Jesper\AppData\Local\Temp\cc4647b3.s:1044   .text.timer_interrupt_config:00000000000000f2 .L0 
C:\Users\Jesper\AppData\Local\Temp\cc4647b3.s:1045   .text.timer_interrupt_config:00000000000000f4 .L0 
C:\Users\Jesper\AppData\Local\Temp\cc4647b3.s:1047   .text.timer_interrupt_config:00000000000000f6 .L0 
C:\Users\Jesper\AppData\Local\Temp\cc4647b3.s:1050   .text.timer_interrupt_config:00000000000000f8 .L0 
C:\Users\Jesper\AppData\Local\Temp\cc4647b3.s:1052   .text.timer_interrupt_config:00000000000000fa .L0 
C:\Users\Jesper\AppData\Local\Temp\cc4647b3.s:1059   .text.int_to_string:0000000000000000 int_to_string
C:\Users\Jesper\AppData\Local\Temp\cc4647b3.s:1062   .text.int_to_string:0000000000000000 .L0 
C:\Users\Jesper\AppData\Local\Temp\cc4647b3.s:1064   .text.int_to_string:0000000000000000 .L0 
C:\Users\Jesper\AppData\Local\Temp\cc4647b3.s:1065   .text.int_to_string:0000000000000000 .L0 
C:\Users\Jesper\AppData\Local\Temp\cc4647b3.s:1066   .text.int_to_string:0000000000000000 .L0 
C:\Users\Jesper\AppData\Local\Temp\cc4647b3.s:1067   .text.int_to_string:0000000000000000 .L0 
C:\Users\Jesper\AppData\Local\Temp\cc4647b3.s:1068   .text.int_to_string:0000000000000000 .L0 
C:\Users\Jesper\AppData\Local\Temp\cc4647b3.s:1070   .text.int_to_string:0000000000000002 .L0 
C:\Users\Jesper\AppData\Local\Temp\cc4647b3.s:1073   .text.int_to_string:0000000000000006 .L0 
C:\Users\Jesper\AppData\Local\Temp\cc4647b3.s:1074   .text.int_to_string:0000000000000006 .L0 
C:\Users\Jesper\AppData\Local\Temp\cc4647b3.s:1077   .text.int_to_string:000000000000000e .L0 
C:\Users\Jesper\AppData\Local\Temp\cc4647b3.s:1078   .text.int_to_string:000000000000000e .L0 
C:\Users\Jesper\AppData\Local\Temp\cc4647b3.s:1081   .text.int_to_string:0000000000000012 .L0 
C:\Users\Jesper\AppData\Local\Temp\cc4647b3.s:1085   .text.int_to_string:0000000000000014 .L0 
C:\Users\Jesper\AppData\Local\Temp\cc4647b3.s:1086   .text.int_to_string:0000000000000014 .L0 
C:\Users\Jesper\AppData\Local\Temp\cc4647b3.s:1087   .text.int_to_string:0000000000000014 .L0 
C:\Users\Jesper\AppData\Local\Temp\cc4647b3.s:1089   .text.int_to_string:0000000000000018 .L0 
C:\Users\Jesper\AppData\Local\Temp\cc4647b3.s:1094   .text.int_to_string:000000000000001e .L0 
C:\Users\Jesper\AppData\Local\Temp\cc4647b3.s:1098   .text.int_to_string:0000000000000024 .L0 
C:\Users\Jesper\AppData\Local\Temp\cc4647b3.s:1100   .text.int_to_string:0000000000000028 .L0 
C:\Users\Jesper\AppData\Local\Temp\cc4647b3.s:1104   .text.int_to_string:000000000000002a .L0 
C:\Users\Jesper\AppData\Local\Temp\cc4647b3.s:1105   .text.int_to_string:000000000000002a .L0 
C:\Users\Jesper\AppData\Local\Temp\cc4647b3.s:1107   .text.int_to_string:000000000000002e .L0 
C:\Users\Jesper\AppData\Local\Temp\cc4647b3.s:1111   .text.int_to_string:0000000000000036 .L0 
C:\Users\Jesper\AppData\Local\Temp\cc4647b3.s:1112   .text.int_to_string:0000000000000036 .L0 
C:\Users\Jesper\AppData\Local\Temp\cc4647b3.s:1114   .text.int_to_string:000000000000003a .L0 
C:\Users\Jesper\AppData\Local\Temp\cc4647b3.s:1118   .text.int_to_string:000000000000003e .L0 
C:\Users\Jesper\AppData\Local\Temp\cc4647b3.s:1119   .text.int_to_string:000000000000003e .L0 
C:\Users\Jesper\AppData\Local\Temp\cc4647b3.s:1122   .text.int_to_string:0000000000000046 .L0 
C:\Users\Jesper\AppData\Local\Temp\cc4647b3.s:1126   .text.int_to_string:0000000000000048 .L0 
C:\Users\Jesper\AppData\Local\Temp\cc4647b3.s:1127   .text.int_to_string:0000000000000048 .L0 
C:\Users\Jesper\AppData\Local\Temp\cc4647b3.s:1130   .text.int_to_string:000000000000004c .L0 
C:\Users\Jesper\AppData\Local\Temp\cc4647b3.s:1131   .text.int_to_string:000000000000004c .L0 
C:\Users\Jesper\AppData\Local\Temp\cc4647b3.s:1135   .text.int_to_string:0000000000000050 .L0 
C:\Users\Jesper\AppData\Local\Temp\cc4647b3.s:1137   .text.int_to_string:0000000000000052 .L0 
C:\Users\Jesper\AppData\Local\Temp\cc4647b3.s:1138   .text.int_to_string:0000000000000052 .L0 
C:\Users\Jesper\AppData\Local\Temp\cc4647b3.s:1141   .text.int_to_string:0000000000000056 .L0 
C:\Users\Jesper\AppData\Local\Temp\cc4647b3.s:1146   .text.int_to_string:0000000000000060 .L0 
C:\Users\Jesper\AppData\Local\Temp\cc4647b3.s:1147   .text.int_to_string:0000000000000060 .L0 
GAS LISTING C:\Users\Jesper\AppData\Local\Temp\cc4647b3.s 			page 44


C:\Users\Jesper\AppData\Local\Temp\cc4647b3.s:1151   .text.int_to_string:0000000000000066 .L0 
C:\Users\Jesper\AppData\Local\Temp\cc4647b3.s:1152   .text.int_to_string:0000000000000066 .L0 
C:\Users\Jesper\AppData\Local\Temp\cc4647b3.s:1156   .text.int_to_string:0000000000000068 .L0 
C:\Users\Jesper\AppData\Local\Temp\cc4647b3.s:1157   .text.int_to_string:0000000000000068 .L0 
C:\Users\Jesper\AppData\Local\Temp\cc4647b3.s:1159   .text.int_to_string:000000000000006a .L0 
C:\Users\Jesper\AppData\Local\Temp\cc4647b3.s:1162   .text.int_to_string:000000000000006c .L0 
C:\Users\Jesper\AppData\Local\Temp\cc4647b3.s:1163   .text.int_to_string:000000000000006c .L0 
C:\Users\Jesper\AppData\Local\Temp\cc4647b3.s:1167   .text.int_to_string:0000000000000074 .L0 
C:\Users\Jesper\AppData\Local\Temp\cc4647b3.s:1168   .text.int_to_string:0000000000000074 .L0 
C:\Users\Jesper\AppData\Local\Temp\cc4647b3.s:1171   .text.int_to_string:000000000000007c .L0 
C:\Users\Jesper\AppData\Local\Temp\cc4647b3.s:1172   .text.int_to_string:000000000000007c .L0 
C:\Users\Jesper\AppData\Local\Temp\cc4647b3.s:1174   .text.int_to_string:0000000000000080 .L0 
C:\Users\Jesper\AppData\Local\Temp\cc4647b3.s:1175   .text.int_to_string:0000000000000080 .L0 
C:\Users\Jesper\AppData\Local\Temp\cc4647b3.s:1183   .text.int_to_string:0000000000000088 .L0 
C:\Users\Jesper\AppData\Local\Temp\cc4647b3.s:1193   .text.append_int_to_string:0000000000000000 .L0 
C:\Users\Jesper\AppData\Local\Temp\cc4647b3.s:1195   .text.append_int_to_string:0000000000000000 .L0 
C:\Users\Jesper\AppData\Local\Temp\cc4647b3.s:1196   .text.append_int_to_string:0000000000000000 .L0 
C:\Users\Jesper\AppData\Local\Temp\cc4647b3.s:1197   .text.append_int_to_string:0000000000000000 .L0 
C:\Users\Jesper\AppData\Local\Temp\cc4647b3.s:1199   .text.append_int_to_string:0000000000000002 .L0 
C:\Users\Jesper\AppData\Local\Temp\cc4647b3.s:1201   .text.append_int_to_string:0000000000000004 .L0 
C:\Users\Jesper\AppData\Local\Temp\cc4647b3.s:1204   .text.append_int_to_string:0000000000000006 .L0 
C:\Users\Jesper\AppData\Local\Temp\cc4647b3.s:1207   .text.append_int_to_string:0000000000000008 .L0 
C:\Users\Jesper\AppData\Local\Temp\cc4647b3.s:1208   .text.append_int_to_string:000000000000000a .L0 
C:\Users\Jesper\AppData\Local\Temp\cc4647b3.s:1210   .text.append_int_to_string:000000000000000a .L0 
C:\Users\Jesper\AppData\Local\Temp\cc4647b3.s:1216   .text.append_int_to_string:0000000000000014 .L0 
C:\Users\Jesper\AppData\Local\Temp\cc4647b3.s:1219   .text.append_int_to_string:000000000000001c .L0 
C:\Users\Jesper\AppData\Local\Temp\cc4647b3.s:1220   .text.append_int_to_string:000000000000001c .L0 
C:\Users\Jesper\AppData\Local\Temp\cc4647b3.s:1225   .text.append_int_to_string:0000000000000028 .L0 
C:\Users\Jesper\AppData\Local\Temp\cc4647b3.s:1226   .text.append_int_to_string:0000000000000028 .L0 
C:\Users\Jesper\AppData\Local\Temp\cc4647b3.s:1227   .text.append_int_to_string:000000000000002a .L0 
C:\Users\Jesper\AppData\Local\Temp\cc4647b3.s:1229   .text.append_int_to_string:000000000000002c .L0 
C:\Users\Jesper\AppData\Local\Temp\cc4647b3.s:1233   .text.append_int_to_string:000000000000002e .L0 
C:\Users\Jesper\AppData\Local\Temp\cc4647b3.s:1235   .text.append_int_to_string:0000000000000030 .L0 
C:\Users\Jesper\AppData\Local\Temp\cc4647b3.s:1242   .text.append_newLine:0000000000000000 append_newLine
C:\Users\Jesper\AppData\Local\Temp\cc4647b3.s:1245   .text.append_newLine:0000000000000000 .L0 
C:\Users\Jesper\AppData\Local\Temp\cc4647b3.s:1247   .text.append_newLine:0000000000000000 .L0 
C:\Users\Jesper\AppData\Local\Temp\cc4647b3.s:1248   .text.append_newLine:0000000000000000 .L0 
C:\Users\Jesper\AppData\Local\Temp\cc4647b3.s:1249   .text.append_newLine:0000000000000000 .L0 
C:\Users\Jesper\AppData\Local\Temp\cc4647b3.s:1254   .text.append_newLine:0000000000000008 .L0 
C:\Users\Jesper\AppData\Local\Temp\cc4647b3.s:1255   .text.append_newLine:0000000000000008 .L0 
C:\Users\Jesper\AppData\Local\Temp\cc4647b3.s:1257   .text.append_newLine:000000000000000c .L0 
C:\Users\Jesper\AppData\Local\Temp\cc4647b3.s:1258   .text.append_newLine:000000000000000e .L0 
C:\Users\Jesper\AppData\Local\Temp\cc4647b3.s:1270   .text.millis:0000000000000000 millis
C:\Users\Jesper\AppData\Local\Temp\cc4647b3.s:1273   .text.millis:0000000000000000 .L0 
C:\Users\Jesper\AppData\Local\Temp\cc4647b3.s:1274   .text.millis:0000000000000000 .L0 
C:\Users\Jesper\AppData\Local\Temp\cc4647b3.s:1275   .text.millis:0000000000000000 .L0 
C:\Users\Jesper\AppData\Local\Temp\cc4647b3.s:1276   .text.millis:0000000000000000 .L0 
C:\Users\Jesper\AppData\Local\Temp\cc4647b3.s:1278   .text.millis:0000000000000002 .L0 
C:\Users\Jesper\AppData\Local\Temp\cc4647b3.s:1282   .text.millis:0000000000000008 .L0 
C:\Users\Jesper\AppData\Local\Temp\cc4647b3.s:1283   .text.millis:0000000000000008 .L0 
C:\Users\Jesper\AppData\Local\Temp\cc4647b3.s:1284   .text.millis:0000000000000008 .L0 
C:\Users\Jesper\AppData\Local\Temp\cc4647b3.s:1286   .text.millis:0000000000000008 .L0 
C:\Users\Jesper\AppData\Local\Temp\cc4647b3.s:1289   .text.millis:0000000000000010 .L0 
C:\Users\Jesper\AppData\Local\Temp\cc4647b3.s:1290   .text.millis:0000000000000010 .L0 
C:\Users\Jesper\AppData\Local\Temp\cc4647b3.s:1298   .text.millis:000000000000002c .L0 
C:\Users\Jesper\AppData\Local\Temp\cc4647b3.s:1300   .text.millis:0000000000000030 .L0 
C:\Users\Jesper\AppData\Local\Temp\cc4647b3.s:1302   .text.millis:0000000000000032 .L0 
GAS LISTING C:\Users\Jesper\AppData\Local\Temp\cc4647b3.s 			page 45


C:\Users\Jesper\AppData\Local\Temp\cc4647b3.s:1304   .text.millis:0000000000000036 .L0 
C:\Users\Jesper\AppData\Local\Temp\cc4647b3.s:1306   .text.millis:0000000000000038 .L0 
C:\Users\Jesper\AppData\Local\Temp\cc4647b3.s:1317   .text.millis:0000000000000058 .L0 
C:\Users\Jesper\AppData\Local\Temp\cc4647b3.s:1318   .text.millis:000000000000005a .L0 
C:\Users\Jesper\AppData\Local\Temp\cc4647b3.s:1320   .text.millis:000000000000005c .L0 
C:\Users\Jesper\AppData\Local\Temp\cc4647b3.s:1322   .text.millis:000000000000005e .L0 
C:\Users\Jesper\AppData\Local\Temp\cc4647b3.s:1325   .text.millis:0000000000000060 .L0 
C:\Users\Jesper\AppData\Local\Temp\cc4647b3.s:1327   .text.millis:0000000000000062 .L0 
C:\Users\Jesper\AppData\Local\Temp\cc4647b3.s:1332   .rodata:0000000000000000 .LANCHOR0
C:\Users\Jesper\AppData\Local\Temp\cc4647b3.s:1372   .data.current_label:0000000000000000 .LANCHOR2
C:\Users\Jesper\AppData\Local\Temp\cc4647b3.s:1380   .data.header:0000000000000000 .LANCHOR3
C:\Users\Jesper\AppData\Local\Temp\cc4647b3.s:1387   .data.labels:0000000000000000 .LANCHOR1
C:\Users\Jesper\AppData\Local\Temp\cc4647b3.s:1399   .sbss.last_Sample_buffer:0000000000000000 .LANCHOR5
C:\Users\Jesper\AppData\Local\Temp\cc4647b3.s:1406   .sbss.measurments_taken:0000000000000000 .LANCHOR4
C:\Users\Jesper\AppData\Local\Temp\cc4647b3.s:571    .text.startup.main:0000000000000426 .L0 
C:\Users\Jesper\AppData\Local\Temp\cc4647b3.s:728    .text.TIMER1_IRQHandler:000000000000011a .L0 
C:\Users\Jesper\AppData\Local\Temp\cc4647b3.s:771    .text.ledInit:000000000000002a .L0 
C:\Users\Jesper\AppData\Local\Temp\cc4647b3.s:789    .text.led_on_B1:0000000000000014 .L0 
C:\Users\Jesper\AppData\Local\Temp\cc4647b3.s:807    .text.led_off_B1:0000000000000014 .L0 
C:\Users\Jesper\AppData\Local\Temp\cc4647b3.s:825    .text.led_on_B0:0000000000000014 .L0 
C:\Users\Jesper\AppData\Local\Temp\cc4647b3.s:843    .text.led_off_B0:0000000000000014 .L0 
C:\Users\Jesper\AppData\Local\Temp\cc4647b3.s:863    .text.led_on_off_B1:0000000000000014 .L0 
C:\Users\Jesper\AppData\Local\Temp\cc4647b3.s:917    .text.init_mpu:0000000000000054 .L0 
C:\Users\Jesper\AppData\Local\Temp\cc4647b3.s:1055   .text.timer_interrupt_config:00000000000000fa .L0 
C:\Users\Jesper\AppData\Local\Temp\cc4647b3.s:1186   .text.int_to_string:0000000000000088 .L0 
C:\Users\Jesper\AppData\Local\Temp\cc4647b3.s:1238   .text.append_int_to_string:0000000000000030 .L0 
C:\Users\Jesper\AppData\Local\Temp\cc4647b3.s:1266   .text.append_newLine:000000000000000e .L0 
C:\Users\Jesper\AppData\Local\Temp\cc4647b3.s:1330   .text.millis:0000000000000062 .L0 
                     .debug_frame:0000000000000000 .L0 
C:\Users\Jesper\AppData\Local\Temp\cc4647b3.s:1336   .rodata:000000000000000c .LC1
C:\Users\Jesper\AppData\Local\Temp\cc4647b3.s:1353   .rodata:0000000000000058 .LC7
C:\Users\Jesper\AppData\Local\Temp\cc4647b3.s:1361   .rodata:00000000000000a0 .LC10
C:\Users\Jesper\AppData\Local\Temp\cc4647b3.s:456    .text.startup.main:0000000000000362 .L3
C:\Users\Jesper\AppData\Local\Temp\cc4647b3.s:319    .text.startup.main:000000000000024e .L4
C:\Users\Jesper\AppData\Local\Temp\cc4647b3.s:465    .text.startup.main:0000000000000370 .L11
C:\Users\Jesper\AppData\Local\Temp\cc4647b3.s:283    .text.startup.main:00000000000001f6 .L12
C:\Users\Jesper\AppData\Local\Temp\cc4647b3.s:248    .text.startup.main:00000000000001bc .L13
C:\Users\Jesper\AppData\Local\Temp\cc4647b3.s:546    .text.startup.main:00000000000003fc .L15
C:\Users\Jesper\AppData\Local\Temp\cc4647b3.s:71     .text.startup.main:000000000000004e .L2
C:\Users\Jesper\AppData\Local\Temp\cc4647b3.s:492    .text.startup.main:000000000000038e .L6
C:\Users\Jesper\AppData\Local\Temp\cc4647b3.s:535    .text.startup.main:00000000000003ee .L7
C:\Users\Jesper\AppData\Local\Temp\cc4647b3.s:330    .text.startup.main:0000000000000262 .L5
C:\Users\Jesper\AppData\Local\Temp\cc4647b3.s:391    .text.startup.main:00000000000002e0 .L14
C:\Users\Jesper\AppData\Local\Temp\cc4647b3.s:1364   .rodata:00000000000000a8 .LC11
C:\Users\Jesper\AppData\Local\Temp\cc4647b3.s:715    .text.TIMER1_IRQHandler:0000000000000112 .L22
C:\Users\Jesper\AppData\Local\Temp\cc4647b3.s:1154   .text.int_to_string:0000000000000068 .L37
C:\Users\Jesper\AppData\Local\Temp\cc4647b3.s:1179   .text.int_to_string:0000000000000084 .L45
C:\Users\Jesper\AppData\Local\Temp\cc4647b3.s:1115   .text.int_to_string:000000000000003e .L41
C:\Users\Jesper\AppData\Local\Temp\cc4647b3.s:1124   .text.int_to_string:0000000000000048 .L42
C:\Users\Jesper\AppData\Local\Temp\cc4647b3.s:1102   .text.int_to_string:000000000000002a .L43
C:\Users\Jesper\AppData\Local\Temp\cc4647b3.s:1083   .text.int_to_string:0000000000000014 .L38
C:\Users\Jesper\AppData\Local\Temp\cc4647b3.s:1091   .text.int_to_string:000000000000001a .L40
C:\Users\Jesper\AppData\Local\Temp\cc4647b3.s:8590   .debug_abbrev:0000000000000000 .Ldebug_abbrev0
C:\Users\Jesper\AppData\Local\Temp\cc4647b3.s:10524  .debug_str:000000000000030c .LASF619
C:\Users\Jesper\AppData\Local\Temp\cc4647b3.s:11070  .debug_str:0000000000001007 .LASF620
C:\Users\Jesper\AppData\Local\Temp\cc4647b3.s:11200  .debug_str:00000000000012f0 .LASF621
C:\Users\Jesper\AppData\Local\Temp\cc4647b3.s:10338  .debug_ranges:0000000000000000 .Ldebug_ranges0
GAS LISTING C:\Users\Jesper\AppData\Local\Temp\cc4647b3.s 			page 46


C:\Users\Jesper\AppData\Local\Temp\cc4647b3.s:10392  .debug_line:0000000000000000 .Ldebug_line0
C:\Users\Jesper\AppData\Local\Temp\cc4647b3.s:10640  .debug_str:000000000000061e .LASF622
C:\Users\Jesper\AppData\Local\Temp\cc4647b3.s:11126  .debug_str:0000000000001149 .LASF0
C:\Users\Jesper\AppData\Local\Temp\cc4647b3.s:11634  .debug_str:0000000000001d05 .LASF1
C:\Users\Jesper\AppData\Local\Temp\cc4647b3.s:10938  .debug_str:0000000000000d07 .LASF2
C:\Users\Jesper\AppData\Local\Temp\cc4647b3.s:10664  .debug_str:00000000000006ac .LASF3
C:\Users\Jesper\AppData\Local\Temp\cc4647b3.s:11242  .debug_str:000000000000148e .LASF4
C:\Users\Jesper\AppData\Local\Temp\cc4647b3.s:11412  .debug_str:0000000000001821 .LASF5
C:\Users\Jesper\AppData\Local\Temp\cc4647b3.s:11520  .debug_str:0000000000001aa2 .LASF6
C:\Users\Jesper\AppData\Local\Temp\cc4647b3.s:10628  .debug_str:00000000000005e3 .LASF7
C:\Users\Jesper\AppData\Local\Temp\cc4647b3.s:11636  .debug_str:0000000000001d12 .LASF8
C:\Users\Jesper\AppData\Local\Temp\cc4647b3.s:11280  .debug_str:0000000000001570 .LASF9
C:\Users\Jesper\AppData\Local\Temp\cc4647b3.s:11424  .debug_str:000000000000185c .LASF10
C:\Users\Jesper\AppData\Local\Temp\cc4647b3.s:11408  .debug_str:000000000000180f .LASF11
C:\Users\Jesper\AppData\Local\Temp\cc4647b3.s:10896  .debug_str:0000000000000bf2 .LASF12
C:\Users\Jesper\AppData\Local\Temp\cc4647b3.s:10402  .debug_str:000000000000002f .LASF13
C:\Users\Jesper\AppData\Local\Temp\cc4647b3.s:11588  .debug_str:0000000000001c04 .LASF14
C:\Users\Jesper\AppData\Local\Temp\cc4647b3.s:11124  .debug_str:000000000000113e .LASF15
C:\Users\Jesper\AppData\Local\Temp\cc4647b3.s:10570  .debug_str:000000000000049f .LASF16
C:\Users\Jesper\AppData\Local\Temp\cc4647b3.s:10494  .debug_str:0000000000000255 .LASF17
C:\Users\Jesper\AppData\Local\Temp\cc4647b3.s:11276  .debug_str:000000000000154f .LASF18
C:\Users\Jesper\AppData\Local\Temp\cc4647b3.s:10798  .debug_str:00000000000009c7 .LASF19
C:\Users\Jesper\AppData\Local\Temp\cc4647b3.s:10708  .debug_str:00000000000007cc .LASF20
C:\Users\Jesper\AppData\Local\Temp\cc4647b3.s:11486  .debug_str:00000000000019c0 .LASF21
C:\Users\Jesper\AppData\Local\Temp\cc4647b3.s:10986  .debug_str:0000000000000e20 .LASF22
C:\Users\Jesper\AppData\Local\Temp\cc4647b3.s:10766  .debug_str:00000000000008fe .LASF23
C:\Users\Jesper\AppData\Local\Temp\cc4647b3.s:10638  .debug_str:0000000000000611 .LASF24
C:\Users\Jesper\AppData\Local\Temp\cc4647b3.s:11002  .debug_str:0000000000000e81 .LASF25
C:\Users\Jesper\AppData\Local\Temp\cc4647b3.s:10526  .debug_str:0000000000000394 .LASF26
C:\Users\Jesper\AppData\Local\Temp\cc4647b3.s:11454  .debug_str:000000000000191c .LASF27
C:\Users\Jesper\AppData\Local\Temp\cc4647b3.s:10626  .debug_str:00000000000005d6 .LASF28
C:\Users\Jesper\AppData\Local\Temp\cc4647b3.s:10428  .debug_str:00000000000000d8 .LASF29
C:\Users\Jesper\AppData\Local\Temp\cc4647b3.s:11466  .debug_str:000000000000195a .LASF30
C:\Users\Jesper\AppData\Local\Temp\cc4647b3.s:11504  .debug_str:0000000000001a2a .LASF31
C:\Users\Jesper\AppData\Local\Temp\cc4647b3.s:11024  .debug_str:0000000000000f07 .LASF32
C:\Users\Jesper\AppData\Local\Temp\cc4647b3.s:11030  .debug_str:0000000000000f30 .LASF33
C:\Users\Jesper\AppData\Local\Temp\cc4647b3.s:10548  .debug_str:000000000000042d .LASF34
C:\Users\Jesper\AppData\Local\Temp\cc4647b3.s:11328  .debug_str:000000000000167a .LASF35
C:\Users\Jesper\AppData\Local\Temp\cc4647b3.s:10578  .debug_str:00000000000004ca .LASF36
C:\Users\Jesper\AppData\Local\Temp\cc4647b3.s:10430  .debug_str:00000000000000e8 .LASF37
C:\Users\Jesper\AppData\Local\Temp\cc4647b3.s:10850  .debug_str:0000000000000afa .LASF38
C:\Users\Jesper\AppData\Local\Temp\cc4647b3.s:10728  .debug_str:0000000000000826 .LASF39
C:\Users\Jesper\AppData\Local\Temp\cc4647b3.s:11526  .debug_str:0000000000001ac8 .LASF40
C:\Users\Jesper\AppData\Local\Temp\cc4647b3.s:11060  .debug_str:0000000000000fcf .LASF41
C:\Users\Jesper\AppData\Local\Temp\cc4647b3.s:11226  .debug_str:000000000000140f .LASF42
C:\Users\Jesper\AppData\Local\Temp\cc4647b3.s:11312  .debug_str:0000000000001615 .LASF43
C:\Users\Jesper\AppData\Local\Temp\cc4647b3.s:10828  .debug_str:0000000000000a6b .LASF44
C:\Users\Jesper\AppData\Local\Temp\cc4647b3.s:10816  .debug_str:0000000000000a17 .LASF45
C:\Users\Jesper\AppData\Local\Temp\cc4647b3.s:11392  .debug_str:00000000000017b1 .LASF46
C:\Users\Jesper\AppData\Local\Temp\cc4647b3.s:11064  .debug_str:0000000000000fe1 .LASF47
C:\Users\Jesper\AppData\Local\Temp\cc4647b3.s:10464  .debug_str:00000000000001c6 .LASF48
C:\Users\Jesper\AppData\Local\Temp\cc4647b3.s:11256  .debug_str:00000000000014dc .LASF49
C:\Users\Jesper\AppData\Local\Temp\cc4647b3.s:10574  .debug_str:00000000000004b7 .LASF50
C:\Users\Jesper\AppData\Local\Temp\cc4647b3.s:11566  .debug_str:0000000000001b92 .LASF51
C:\Users\Jesper\AppData\Local\Temp\cc4647b3.s:11102  .debug_str:00000000000010bc .LASF52
C:\Users\Jesper\AppData\Local\Temp\cc4647b3.s:10784  .debug_str:000000000000096f .LASF53
C:\Users\Jesper\AppData\Local\Temp\cc4647b3.s:11528  .debug_str:0000000000001ad2 .LASF54
GAS LISTING C:\Users\Jesper\AppData\Local\Temp\cc4647b3.s 			page 47


C:\Users\Jesper\AppData\Local\Temp\cc4647b3.s:11228  .debug_str:000000000000141b .LASF55
C:\Users\Jesper\AppData\Local\Temp\cc4647b3.s:10746  .debug_str:0000000000000887 .LASF56
C:\Users\Jesper\AppData\Local\Temp\cc4647b3.s:11500  .debug_str:0000000000001a10 .LASF57
C:\Users\Jesper\AppData\Local\Temp\cc4647b3.s:11442  .debug_str:00000000000018b5 .LASF58
C:\Users\Jesper\AppData\Local\Temp\cc4647b3.s:10940  .debug_str:0000000000000d14 .LASF59
C:\Users\Jesper\AppData\Local\Temp\cc4647b3.s:10898  .debug_str:0000000000000bfd .LASF60
C:\Users\Jesper\AppData\Local\Temp\cc4647b3.s:10796  .debug_str:00000000000009b9 .LASF61
C:\Users\Jesper\AppData\Local\Temp\cc4647b3.s:11548  .debug_str:0000000000001b36 .LASF62
C:\Users\Jesper\AppData\Local\Temp\cc4647b3.s:10564  .debug_str:0000000000000479 .LASF63
C:\Users\Jesper\AppData\Local\Temp\cc4647b3.s:11640  .debug_str:0000000000001d23 .LASF64
C:\Users\Jesper\AppData\Local\Temp\cc4647b3.s:11084  .debug_str:000000000000105e .LASF65
C:\Users\Jesper\AppData\Local\Temp\cc4647b3.s:11144  .debug_str:00000000000011bd .LASF66
C:\Users\Jesper\AppData\Local\Temp\cc4647b3.s:10680  .debug_str:000000000000070a .LASF67
C:\Users\Jesper\AppData\Local\Temp\cc4647b3.s:10568  .debug_str:0000000000000495 .LASF69
C:\Users\Jesper\AppData\Local\Temp\cc4647b3.s:10700  .debug_str:000000000000079c .LASF68
C:\Users\Jesper\AppData\Local\Temp\cc4647b3.s:11360  .debug_str:0000000000001723 .LASF70
C:\Users\Jesper\AppData\Local\Temp\cc4647b3.s:11452  .debug_str:0000000000001912 .LASF71
C:\Users\Jesper\AppData\Local\Temp\cc4647b3.s:10790  .debug_str:000000000000098e .LASF72
C:\Users\Jesper\AppData\Local\Temp\cc4647b3.s:11576  .debug_str:0000000000001bbb .LASF73
C:\Users\Jesper\AppData\Local\Temp\cc4647b3.s:10602  .debug_str:0000000000000549 .LASF74
C:\Users\Jesper\AppData\Local\Temp\cc4647b3.s:11028  .debug_str:0000000000000f25 .LASF75
C:\Users\Jesper\AppData\Local\Temp\cc4647b3.s:10928  .debug_str:0000000000000cb6 .LASF76
C:\Users\Jesper\AppData\Local\Temp\cc4647b3.s:11038  .debug_str:0000000000000f5a .LASF77
C:\Users\Jesper\AppData\Local\Temp\cc4647b3.s:10922  .debug_str:0000000000000c9c .LASF78
C:\Users\Jesper\AppData\Local\Temp\cc4647b3.s:11288  .debug_str:0000000000001592 .LASF79
C:\Users\Jesper\AppData\Local\Temp\cc4647b3.s:10682  .debug_str:0000000000000716 .LASF80
C:\Users\Jesper\AppData\Local\Temp\cc4647b3.s:11470  .debug_str:0000000000001975 .LASF81
C:\Users\Jesper\AppData\Local\Temp\cc4647b3.s:11300  .debug_str:00000000000015d6 .LASF82
C:\Users\Jesper\AppData\Local\Temp\cc4647b3.s:11534  .debug_str:0000000000001aee .LASF83
C:\Users\Jesper\AppData\Local\Temp\cc4647b3.s:11462  .debug_str:000000000000194b .LASF84
C:\Users\Jesper\AppData\Local\Temp\cc4647b3.s:10946  .debug_str:0000000000000d3a .LASF209
C:\Users\Jesper\AppData\Local\Temp\cc4647b3.s:11364  .debug_str:000000000000173c .LASF85
C:\Users\Jesper\AppData\Local\Temp\cc4647b3.s:11378  .debug_str:0000000000001779 .LASF86
C:\Users\Jesper\AppData\Local\Temp\cc4647b3.s:11380  .debug_str:0000000000001782 .LASF87
C:\Users\Jesper\AppData\Local\Temp\cc4647b3.s:11128  .debug_str:000000000000115b .LASF88
C:\Users\Jesper\AppData\Local\Temp\cc4647b3.s:11512  .debug_str:0000000000001a5a .LASF89
C:\Users\Jesper\AppData\Local\Temp\cc4647b3.s:10996  .debug_str:0000000000000e62 .LASF90
C:\Users\Jesper\AppData\Local\Temp\cc4647b3.s:10480  .debug_str:000000000000020d .LASF91
C:\Users\Jesper\AppData\Local\Temp\cc4647b3.s:10482  .debug_str:0000000000000218 .LASF92
C:\Users\Jesper\AppData\Local\Temp\cc4647b3.s:10484  .debug_str:0000000000000223 .LASF93
C:\Users\Jesper\AppData\Local\Temp\cc4647b3.s:10486  .debug_str:000000000000022e .LASF94
C:\Users\Jesper\AppData\Local\Temp\cc4647b3.s:10488  .debug_str:0000000000000239 .LASF95
C:\Users\Jesper\AppData\Local\Temp\cc4647b3.s:10490  .debug_str:0000000000000244 .LASF96
C:\Users\Jesper\AppData\Local\Temp\cc4647b3.s:11202  .debug_str:000000000000135f .LASF97
C:\Users\Jesper\AppData\Local\Temp\cc4647b3.s:10672  .debug_str:00000000000006e4 .LASF98
C:\Users\Jesper\AppData\Local\Temp\cc4647b3.s:10674  .debug_str:00000000000006ed .LASF99
C:\Users\Jesper\AppData\Local\Temp\cc4647b3.s:10504  .debug_str:00000000000002b6 .LASF100
C:\Users\Jesper\AppData\Local\Temp\cc4647b3.s:10506  .debug_str:00000000000002c1 .LASF101
C:\Users\Jesper\AppData\Local\Temp\cc4647b3.s:10454  .debug_str:0000000000000188 .LASF102
C:\Users\Jesper\AppData\Local\Temp\cc4647b3.s:10456  .debug_str:0000000000000192 .LASF103
C:\Users\Jesper\AppData\Local\Temp\cc4647b3.s:11538  .debug_str:0000000000001b09 .LASF104
C:\Users\Jesper\AppData\Local\Temp\cc4647b3.s:11540  .debug_str:0000000000001b12 .LASF105
C:\Users\Jesper\AppData\Local\Temp\cc4647b3.s:10754  .debug_str:00000000000008b3 .LASF106
C:\Users\Jesper\AppData\Local\Temp\cc4647b3.s:10756  .debug_str:00000000000008bc .LASF107
C:\Users\Jesper\AppData\Local\Temp\cc4647b3.s:11484  .debug_str:00000000000019b7 .LASF108
C:\Users\Jesper\AppData\Local\Temp\cc4647b3.s:10438  .debug_str:0000000000000134 .LASF109
C:\Users\Jesper\AppData\Local\Temp\cc4647b3.s:10684  .debug_str:000000000000071e .LASF110
GAS LISTING C:\Users\Jesper\AppData\Local\Temp\cc4647b3.s 			page 48


C:\Users\Jesper\AppData\Local\Temp\cc4647b3.s:11244  .debug_str:000000000000149d .LASF111
C:\Users\Jesper\AppData\Local\Temp\cc4647b3.s:10958  .debug_str:0000000000000d90 .LASF112
C:\Users\Jesper\AppData\Local\Temp\cc4647b3.s:11042  .debug_str:0000000000000f71 .LASF113
C:\Users\Jesper\AppData\Local\Temp\cc4647b3.s:11044  .debug_str:0000000000000f7b .LASF114
C:\Users\Jesper\AppData\Local\Temp\cc4647b3.s:11046  .debug_str:0000000000000f85 .LASF115
C:\Users\Jesper\AppData\Local\Temp\cc4647b3.s:11048  .debug_str:0000000000000f8f .LASF116
C:\Users\Jesper\AppData\Local\Temp\cc4647b3.s:11050  .debug_str:0000000000000f99 .LASF117
C:\Users\Jesper\AppData\Local\Temp\cc4647b3.s:11032  .debug_str:0000000000000f3c .LASF118
C:\Users\Jesper\AppData\Local\Temp\cc4647b3.s:11034  .debug_str:0000000000000f45 .LASF119
C:\Users\Jesper\AppData\Local\Temp\cc4647b3.s:10478  .debug_str:0000000000000202 .LASF120
C:\Users\Jesper\AppData\Local\Temp\cc4647b3.s:10670  .debug_str:00000000000006db .LASF121
C:\Users\Jesper\AppData\Local\Temp\cc4647b3.s:10502  .debug_str:00000000000002ab .LASF122
C:\Users\Jesper\AppData\Local\Temp\cc4647b3.s:10924  .debug_str:0000000000000ca7 .LASF123
C:\Users\Jesper\AppData\Local\Temp\cc4647b3.s:11012  .debug_str:0000000000000eb0 .LASF124
C:\Users\Jesper\AppData\Local\Temp\cc4647b3.s:10988  .debug_str:0000000000000e33 .LASF125
C:\Users\Jesper\AppData\Local\Temp\cc4647b3.s:11354  .debug_str:000000000000170c .LASF126
C:\Users\Jesper\AppData\Local\Temp\cc4647b3.s:10764  .debug_str:00000000000008f0 .LASF127
C:\Users\Jesper\AppData\Local\Temp\cc4647b3.s:10542  .debug_str:0000000000000401 .LASF128
C:\Users\Jesper\AppData\Local\Temp\cc4647b3.s:11118  .debug_str:000000000000111b .LASF129
C:\Users\Jesper\AppData\Local\Temp\cc4647b3.s:10992  .debug_str:0000000000000e4e .LASF130
C:\Users\Jesper\AppData\Local\Temp\cc4647b3.s:11098  .debug_str:00000000000010a7 .LASF131
C:\Users\Jesper\AppData\Local\Temp\cc4647b3.s:10782  .debug_str:0000000000000964 .LASF132
C:\Users\Jesper\AppData\Local\Temp\cc4647b3.s:11552  .debug_str:0000000000001b4e .LASF133
C:\Users\Jesper\AppData\Local\Temp\cc4647b3.s:10426  .debug_str:00000000000000cc .LASF134
C:\Users\Jesper\AppData\Local\Temp\cc4647b3.s:10566  .debug_str:0000000000000488 .LASF135
C:\Users\Jesper\AppData\Local\Temp\cc4647b3.s:10920  .debug_str:0000000000000c82 .LASF136
C:\Users\Jesper\AppData\Local\Temp\cc4647b3.s:11234  .debug_str:0000000000001460 .LASF137
C:\Users\Jesper\AppData\Local\Temp\cc4647b3.s:10716  .debug_str:00000000000007fd .LASF138
C:\Users\Jesper\AppData\Local\Temp\cc4647b3.s:11040  .debug_str:0000000000000f68 .LASF139
C:\Users\Jesper\AppData\Local\Temp\cc4647b3.s:10842  .debug_str:0000000000000abe .LASF140
C:\Users\Jesper\AppData\Local\Temp\cc4647b3.s:11428  .debug_str:0000000000001876 .LASF141
C:\Users\Jesper\AppData\Local\Temp\cc4647b3.s:10864  .debug_str:0000000000000b3a .LASF142
C:\Users\Jesper\AppData\Local\Temp\cc4647b3.s:11596  .debug_str:0000000000001c38 .LASF143
C:\Users\Jesper\AppData\Local\Temp\cc4647b3.s:11314  .debug_str:0000000000001621 .LASF144
C:\Users\Jesper\AppData\Local\Temp\cc4647b3.s:11610  .debug_str:0000000000001c89 .LASF145
C:\Users\Jesper\AppData\Local\Temp\cc4647b3.s:11608  .debug_str:0000000000001c81 .LASF146
C:\Users\Jesper\AppData\Local\Temp\cc4647b3.s:11410  .debug_str:000000000000181a .LASF147
C:\Users\Jesper\AppData\Local\Temp\cc4647b3.s:11602  .debug_str:0000000000001c5e .LASF148
C:\Users\Jesper\AppData\Local\Temp\cc4647b3.s:11560  .debug_str:0000000000001b73 .LASF149
C:\Users\Jesper\AppData\Local\Temp\cc4647b3.s:10848  .debug_str:0000000000000aef .LASF150
C:\Users\Jesper\AppData\Local\Temp\cc4647b3.s:10734  .debug_str:0000000000000848 .LASF151
C:\Users\Jesper\AppData\Local\Temp\cc4647b3.s:10886  .debug_str:0000000000000bc2 .LASF152
C:\Users\Jesper\AppData\Local\Temp\cc4647b3.s:11600  .debug_str:0000000000001c56 .LASF153
C:\Users\Jesper\AppData\Local\Temp\cc4647b3.s:10412  .debug_str:0000000000000085 .LASF154
C:\Users\Jesper\AppData\Local\Temp\cc4647b3.s:11590  .debug_str:0000000000001c0f .LASF155
C:\Users\Jesper\AppData\Local\Temp\cc4647b3.s:11122  .debug_str:0000000000001139 .LASF156
C:\Users\Jesper\AppData\Local\Temp\cc4647b3.s:10676  .debug_str:00000000000006f6 .LASF157
C:\Users\Jesper\AppData\Local\Temp\cc4647b3.s:11248  .debug_str:00000000000014ae .LASF158
C:\Users\Jesper\AppData\Local\Temp\cc4647b3.s:11544  .debug_str:0000000000001b24 .LASF159
C:\Users\Jesper\AppData\Local\Temp\cc4647b3.s:11400  .debug_str:00000000000017e9 .LASF160
C:\Users\Jesper\AppData\Local\Temp\cc4647b3.s:11586  .debug_str:0000000000001bfa .LASF161
C:\Users\Jesper\AppData\Local\Temp\cc4647b3.s:11622  .debug_str:0000000000001cce .LASF162
C:\Users\Jesper\AppData\Local\Temp\cc4647b3.s:10912  .debug_str:0000000000000c51 .LASF163
C:\Users\Jesper\AppData\Local\Temp\cc4647b3.s:10838  .debug_str:0000000000000aaa .LASF164
C:\Users\Jesper\AppData\Local\Temp\cc4647b3.s:11572  .debug_str:0000000000001ba9 .LASF165
C:\Users\Jesper\AppData\Local\Temp\cc4647b3.s:11420  .debug_str:000000000000184e .LASF166
C:\Users\Jesper\AppData\Local\Temp\cc4647b3.s:11326  .debug_str:0000000000001673 .LASF167
GAS LISTING C:\Users\Jesper\AppData\Local\Temp\cc4647b3.s 			page 49


C:\Users\Jesper\AppData\Local\Temp\cc4647b3.s:10634  .debug_str:0000000000000601 .LASF168
C:\Users\Jesper\AppData\Local\Temp\cc4647b3.s:11156  .debug_str:0000000000001220 .LASF169
C:\Users\Jesper\AppData\Local\Temp\cc4647b3.s:10718  .debug_str:0000000000000804 .LASF170
C:\Users\Jesper\AppData\Local\Temp\cc4647b3.s:10726  .debug_str:0000000000000821 .LASF171
C:\Users\Jesper\AppData\Local\Temp\cc4647b3.s:11306  .debug_str:0000000000001600 .LASF172
C:\Users\Jesper\AppData\Local\Temp\cc4647b3.s:10492  .debug_str:000000000000024f .LASF173
C:\Users\Jesper\AppData\Local\Temp\cc4647b3.s:10752  .debug_str:00000000000008a8 .LASF174
C:\Users\Jesper\AppData\Local\Temp\cc4647b3.s:10990  .debug_str:0000000000000e44 .LASF175
C:\Users\Jesper\AppData\Local\Temp\cc4647b3.s:10788  .debug_str:0000000000000984 .LASF176
C:\Users\Jesper\AppData\Local\Temp\cc4647b3.s:11626  .debug_str:0000000000001cdc .LASF177
C:\Users\Jesper\AppData\Local\Temp\cc4647b3.s:10466  .debug_str:00000000000001d0 .LASF178
C:\Users\Jesper\AppData\Local\Temp\cc4647b3.s:10820  .debug_str:0000000000000a3b .LASF179
C:\Users\Jesper\AppData\Local\Temp\cc4647b3.s:10822  .debug_str:0000000000000a46 .LASF180
C:\Users\Jesper\AppData\Local\Temp\cc4647b3.s:11554  .debug_str:0000000000001b5a .LASF181
C:\Users\Jesper\AppData\Local\Temp\cc4647b3.s:10730  .debug_str:0000000000000833 .LASF182
C:\Users\Jesper\AppData\Local\Temp\cc4647b3.s:10596  .debug_str:0000000000000529 .LASF183
C:\Users\Jesper\AppData\Local\Temp\cc4647b3.s:10422  .debug_str:00000000000000bb .LASF184
C:\Users\Jesper\AppData\Local\Temp\cc4647b3.s:11322  .debug_str:000000000000165e .LASF185
C:\Users\Jesper\AppData\Local\Temp\cc4647b3.s:10598  .debug_str:0000000000000531 .LASF186
C:\Users\Jesper\AppData\Local\Temp\cc4647b3.s:11252  .debug_str:00000000000014c0 .LASF187
C:\Users\Jesper\AppData\Local\Temp\cc4647b3.s:10890  .debug_str:0000000000000bd5 .LASF188
C:\Users\Jesper\AppData\Local\Temp\cc4647b3.s:11632  .debug_str:0000000000001cfa .LASF189
C:\Users\Jesper\AppData\Local\Temp\cc4647b3.s:11480  .debug_str:00000000000019a6 .LASF190
C:\Users\Jesper\AppData\Local\Temp\cc4647b3.s:11488  .debug_str:00000000000019d3 .LASF191
C:\Users\Jesper\AppData\Local\Temp\cc4647b3.s:10742  .debug_str:0000000000000875 .LASF192
C:\Users\Jesper\AppData\Local\Temp\cc4647b3.s:10450  .debug_str:0000000000000174 .LASF193
C:\Users\Jesper\AppData\Local\Temp\cc4647b3.s:10648  .debug_str:0000000000000656 .LASF194
C:\Users\Jesper\AppData\Local\Temp\cc4647b3.s:10706  .debug_str:00000000000007c0 .LASF195
C:\Users\Jesper\AppData\Local\Temp\cc4647b3.s:11222  .debug_str:00000000000013f5 .LASF196
C:\Users\Jesper\AppData\Local\Temp\cc4647b3.s:10980  .debug_str:0000000000000e04 .LASF197
C:\Users\Jesper\AppData\Local\Temp\cc4647b3.s:10662  .debug_str:00000000000006a4 .LASF198
C:\Users\Jesper\AppData\Local\Temp\cc4647b3.s:10844  .debug_str:0000000000000ac5 .LASF199
C:\Users\Jesper\AppData\Local\Temp\cc4647b3.s:11078  .debug_str:0000000000001039 .LASF200
C:\Users\Jesper\AppData\Local\Temp\cc4647b3.s:11468  .debug_str:0000000000001969 .LASF201
C:\Users\Jesper\AppData\Local\Temp\cc4647b3.s:10616  .debug_str:0000000000000583 .LASF202
C:\Users\Jesper\AppData\Local\Temp\cc4647b3.s:10856  .debug_str:0000000000000b16 .LASF211
C:\Users\Jesper\AppData\Local\Temp\cc4647b3.s:10606  .debug_str:000000000000055e .LASF203
C:\Users\Jesper\AppData\Local\Temp\cc4647b3.s:11434  .debug_str:0000000000001893 .LASF204
C:\Users\Jesper\AppData\Local\Temp\cc4647b3.s:11422  .debug_str:0000000000001857 .LASF205
C:\Users\Jesper\AppData\Local\Temp\cc4647b3.s:10966  .debug_str:0000000000000dbd .LASF206
C:\Users\Jesper\AppData\Local\Temp\cc4647b3.s:10552  .debug_str:0000000000000440 .LASF207
C:\Users\Jesper\AppData\Local\Temp\cc4647b3.s:11260  .debug_str:00000000000014ee .LASF208
C:\Users\Jesper\AppData\Local\Temp\cc4647b3.s:11418  .debug_str:0000000000001844 .LASF210
C:\Users\Jesper\AppData\Local\Temp\cc4647b3.s:10870  .debug_str:0000000000000b5a .LASF212
C:\Users\Jesper\AppData\Local\Temp\cc4647b3.s:10702  .debug_str:00000000000007aa .LASF213
C:\Users\Jesper\AppData\Local\Temp\cc4647b3.s:11186  .debug_str:00000000000012ba .LASF214
C:\Users\Jesper\AppData\Local\Temp\cc4647b3.s:10720  .debug_str:000000000000080b .LASF215
C:\Users\Jesper\AppData\Local\Temp\cc4647b3.s:11292  .debug_str:00000000000015b7 .LASF216
C:\Users\Jesper\AppData\Local\Temp\cc4647b3.s:10872  .debug_str:0000000000000b63 .LASF217
C:\Users\Jesper\AppData\Local\Temp\cc4647b3.s:11000  .debug_str:0000000000000e79 .LASF218
C:\Users\Jesper\AppData\Local\Temp\cc4647b3.s:11204  .debug_str:0000000000001369 .LASF219
C:\Users\Jesper\AppData\Local\Temp\cc4647b3.s:11284  .debug_str:0000000000001582 .LASF220
C:\Users\Jesper\AppData\Local\Temp\cc4647b3.s:10902  .debug_str:0000000000000c1b .LASF221
C:\Users\Jesper\AppData\Local\Temp\cc4647b3.s:10812  .debug_str:0000000000000a02 .LASF222
C:\Users\Jesper\AppData\Local\Temp\cc4647b3.s:11330  .debug_str:0000000000001686 .LASF223
C:\Users\Jesper\AppData\Local\Temp\cc4647b3.s:10744  .debug_str:0000000000000880 .LASF224
C:\Users\Jesper\AppData\Local\Temp\cc4647b3.s:10540  .debug_str:00000000000003fa .LASF225
GAS LISTING C:\Users\Jesper\AppData\Local\Temp\cc4647b3.s 			page 50


C:\Users\Jesper\AppData\Local\Temp\cc4647b3.s:11426  .debug_str:0000000000001869 .LASF226
C:\Users\Jesper\AppData\Local\Temp\cc4647b3.s:10444  .debug_str:000000000000014f .LASF227
C:\Users\Jesper\AppData\Local\Temp\cc4647b3.s:10592  .debug_str:0000000000000510 .LASF228
C:\Users\Jesper\AppData\Local\Temp\cc4647b3.s:10932  .debug_str:0000000000000cde .LASF229
C:\Users\Jesper\AppData\Local\Temp\cc4647b3.s:11344  .debug_str:00000000000016d2 .LASF230
C:\Users\Jesper\AppData\Local\Temp\cc4647b3.s:11332  .debug_str:0000000000001694 .LASF231
C:\Users\Jesper\AppData\Local\Temp\cc4647b3.s:10696  .debug_str:0000000000000779 .LASF232
C:\Users\Jesper\AppData\Local\Temp\cc4647b3.s:11092  .debug_str:000000000000108d .LASF233
C:\Users\Jesper\AppData\Local\Temp\cc4647b3.s:10394  .debug_str:0000000000000000 .LASF234
C:\Users\Jesper\AppData\Local\Temp\cc4647b3.s:10936  .debug_str:0000000000000cf9 .LASF235
C:\Users\Jesper\AppData\Local\Temp\cc4647b3.s:10930  .debug_str:0000000000000cc8 .LASF236
C:\Users\Jesper\AppData\Local\Temp\cc4647b3.s:11066  .debug_str:0000000000000ff1 .LASF237
C:\Users\Jesper\AppData\Local\Temp\cc4647b3.s:10772  .debug_str:0000000000000922 .LASF238
C:\Users\Jesper\AppData\Local\Temp\cc4647b3.s:11240  .debug_str:0000000000001481 .LASF239
C:\Users\Jesper\AppData\Local\Temp\cc4647b3.s:11136  .debug_str:000000000000118f .LASF240
C:\Users\Jesper\AppData\Local\Temp\cc4647b3.s:11148  .debug_str:00000000000011e8 .LASF241
C:\Users\Jesper\AppData\Local\Temp\cc4647b3.s:11180  .debug_str:0000000000001298 .LASF242
C:\Users\Jesper\AppData\Local\Temp\cc4647b3.s:11014  .debug_str:0000000000000ebc .LASF243
C:\Users\Jesper\AppData\Local\Temp\cc4647b3.s:11550  .debug_str:0000000000001b44 .LASF244
C:\Users\Jesper\AppData\Local\Temp\cc4647b3.s:10974  .debug_str:0000000000000de0 .LASF245
C:\Users\Jesper\AppData\Local\Temp\cc4647b3.s:10692  .debug_str:0000000000000762 .LASF246
C:\Users\Jesper\AppData\Local\Temp\cc4647b3.s:11444  .debug_str:00000000000018c8 .LASF247
C:\Users\Jesper\AppData\Local\Temp\cc4647b3.s:10398  .debug_str:0000000000000015 .LASF248
C:\Users\Jesper\AppData\Local\Temp\cc4647b3.s:10954  .debug_str:0000000000000d73 .LASF249
C:\Users\Jesper\AppData\Local\Temp\cc4647b3.s:11142  .debug_str:00000000000011ad .LASF250
C:\Users\Jesper\AppData\Local\Temp\cc4647b3.s:11404  .debug_str:00000000000017f7 .LASF251
C:\Users\Jesper\AppData\Local\Temp\cc4647b3.s:10666  .debug_str:00000000000006ba .LASF252
C:\Users\Jesper\AppData\Local\Temp\cc4647b3.s:11370  .debug_str:0000000000001754 .LASF253
C:\Users\Jesper\AppData\Local\Temp\cc4647b3.s:10404  .debug_str:000000000000003a .LASF254
C:\Users\Jesper\AppData\Local\Temp\cc4647b3.s:11562  .debug_str:0000000000001b7e .LASF255
C:\Users\Jesper\AppData\Local\Temp\cc4647b3.s:10414  .debug_str:000000000000008f .LASF256
C:\Users\Jesper\AppData\Local\Temp\cc4647b3.s:11074  .debug_str:000000000000101b .LASF257
C:\Users\Jesper\AppData\Local\Temp\cc4647b3.s:10614  .debug_str:0000000000000579 .LASF258
C:\Users\Jesper\AppData\Local\Temp\cc4647b3.s:10914  .debug_str:0000000000000c58 .LASF259
C:\Users\Jesper\AppData\Local\Temp\cc4647b3.s:11574  .debug_str:0000000000001bb1 .LASF260
C:\Users\Jesper\AppData\Local\Temp\cc4647b3.s:10982  .debug_str:0000000000000e0d .LASF261
C:\Users\Jesper\AppData\Local\Temp\cc4647b3.s:11450  .debug_str:0000000000001909 .LASF262
C:\Users\Jesper\AppData\Local\Temp\cc4647b3.s:10630  .debug_str:00000000000005ef .LASF263
C:\Users\Jesper\AppData\Local\Temp\cc4647b3.s:10522  .debug_str:00000000000002fe .LASF264
C:\Users\Jesper\AppData\Local\Temp\cc4647b3.s:11158  .debug_str:0000000000001229 .LASF265
C:\Users\Jesper\AppData\Local\Temp\cc4647b3.s:11472  .debug_str:000000000000197d .LASF266
C:\Users\Jesper\AppData\Local\Temp\cc4647b3.s:11490  .debug_str:00000000000019db .LASF267
C:\Users\Jesper\AppData\Local\Temp\cc4647b3.s:11224  .debug_str:0000000000001400 .LASF268
C:\Users\Jesper\AppData\Local\Temp\cc4647b3.s:11274  .debug_str:0000000000001545 .LASF269
C:\Users\Jesper\AppData\Local\Temp\cc4647b3.s:11358  .debug_str:000000000000171a .LASF270
C:\Users\Jesper\AppData\Local\Temp\cc4647b3.s:10472  .debug_str:00000000000001e7 .LASF271
C:\Users\Jesper\AppData\Local\Temp\cc4647b3.s:11438  .debug_str:00000000000018a2 .LASF272
C:\Users\Jesper\AppData\Local\Temp\cc4647b3.s:10590  .debug_str:0000000000000508 .LASF273
C:\Users\Jesper\AppData\Local\Temp\cc4647b3.s:11246  .debug_str:00000000000014a5 .LASF274
C:\Users\Jesper\AppData\Local\Temp\cc4647b3.s:10420  .debug_str:00000000000000b3 .LASF275
C:\Users\Jesper\AppData\Local\Temp\cc4647b3.s:11056  .debug_str:0000000000000fb2 .LASF276
C:\Users\Jesper\AppData\Local\Temp\cc4647b3.s:11440  .debug_str:00000000000018ab .LASF277
C:\Users\Jesper\AppData\Local\Temp\cc4647b3.s:11536  .debug_str:0000000000001af7 .LASF278
C:\Users\Jesper\AppData\Local\Temp\cc4647b3.s:10832  .debug_str:0000000000000a7f .LASF279
C:\Users\Jesper\AppData\Local\Temp\cc4647b3.s:10714  .debug_str:00000000000007f6 .LASF280
C:\Users\Jesper\AppData\Local\Temp\cc4647b3.s:11072  .debug_str:000000000000100e .LASF281
C:\Users\Jesper\AppData\Local\Temp\cc4647b3.s:11194  .debug_str:00000000000012d7 .LASF282
GAS LISTING C:\Users\Jesper\AppData\Local\Temp\cc4647b3.s 			page 51


C:\Users\Jesper\AppData\Local\Temp\cc4647b3.s:11018  .debug_str:0000000000000ed4 .LASF283
C:\Users\Jesper\AppData\Local\Temp\cc4647b3.s:10396  .debug_str:0000000000000009 .LASF284
C:\Users\Jesper\AppData\Local\Temp\cc4647b3.s:11436  .debug_str:000000000000189a .LASF285
C:\Users\Jesper\AppData\Local\Temp\cc4647b3.s:10704  .debug_str:00000000000007b8 .LASF286
C:\Users\Jesper\AppData\Local\Temp\cc4647b3.s:11542  .debug_str:0000000000001b1b .LASF287
C:\Users\Jesper\AppData\Local\Temp\cc4647b3.s:10762  .debug_str:00000000000008e6 .LASF288
C:\Users\Jesper\AppData\Local\Temp\cc4647b3.s:10948  .debug_str:0000000000000d4a .LASF289
C:\Users\Jesper\AppData\Local\Temp\cc4647b3.s:10518  .debug_str:00000000000002f0 .LASF290
C:\Users\Jesper\AppData\Local\Temp\cc4647b3.s:11138  .debug_str:000000000000119e .LASF291
C:\Users\Jesper\AppData\Local\Temp\cc4647b3.s:11556  .debug_str:0000000000001b62 .LASF292
C:\Users\Jesper\AppData\Local\Temp\cc4647b3.s:10740  .debug_str:000000000000086a .LASF293
C:\Users\Jesper\AppData\Local\Temp\cc4647b3.s:10510  .debug_str:00000000000002d2 .LASF294
C:\Users\Jesper\AppData\Local\Temp\cc4647b3.s:10876  .debug_str:0000000000000b73 .LASF295
C:\Users\Jesper\AppData\Local\Temp\cc4647b3.s:11638  .debug_str:0000000000001d1b .LASF296
C:\Users\Jesper\AppData\Local\Temp\cc4647b3.s:11584  .debug_str:0000000000001be9 .LASF297
C:\Users\Jesper\AppData\Local\Temp\cc4647b3.s:11386  .debug_str:000000000000179b .LASF298
C:\Users\Jesper\AppData\Local\Temp\cc4647b3.s:11374  .debug_str:0000000000001764 .LASF299
C:\Users\Jesper\AppData\Local\Temp\cc4647b3.s:11294  .debug_str:00000000000015be .LASF300
C:\Users\Jesper\AppData\Local\Temp\cc4647b3.s:10654  .debug_str:0000000000000683 .LASF301
C:\Users\Jesper\AppData\Local\Temp\cc4647b3.s:11406  .debug_str:000000000000180a .LASF302
C:\Users\Jesper\AppData\Local\Temp\cc4647b3.s:10836  .debug_str:0000000000000aa3 .LASF303
C:\Users\Jesper\AppData\Local\Temp\cc4647b3.s:10576  .debug_str:00000000000004c1 .LASF304
C:\Users\Jesper\AppData\Local\Temp\cc4647b3.s:10562  .debug_str:0000000000000471 .LASF305
C:\Users\Jesper\AppData\Local\Temp\cc4647b3.s:10738  .debug_str:0000000000000861 .LASF306
C:\Users\Jesper\AppData\Local\Temp\cc4647b3.s:10770  .debug_str:000000000000090f .LASF307
C:\Users\Jesper\AppData\Local\Temp\cc4647b3.s:11160  .debug_str:0000000000001231 .LASF308
C:\Users\Jesper\AppData\Local\Temp\cc4647b3.s:11362  .debug_str:000000000000172d .LASF309
C:\Users\Jesper\AppData\Local\Temp\cc4647b3.s:10882  .debug_str:0000000000000b8e .LASF310
C:\Users\Jesper\AppData\Local\Temp\cc4647b3.s:10512  .debug_str:00000000000002db .LASF311
C:\Users\Jesper\AppData\Local\Temp\cc4647b3.s:11110  .debug_str:00000000000010ee .LASF312
C:\Users\Jesper\AppData\Local\Temp\cc4647b3.s:11134  .debug_str:0000000000001184 .LASF313
C:\Users\Jesper\AppData\Local\Temp\cc4647b3.s:11290  .debug_str:00000000000015a9 .LASF314
C:\Users\Jesper\AppData\Local\Temp\cc4647b3.s:11340  .debug_str:00000000000016b9 .LASF315
C:\Users\Jesper\AppData\Local\Temp\cc4647b3.s:11352  .debug_str:0000000000001701 .LASF316
C:\Users\Jesper\AppData\Local\Temp\cc4647b3.s:11372  .debug_str:000000000000175f .LASF317
C:\Users\Jesper\AppData\Local\Temp\cc4647b3.s:11100  .debug_str:00000000000010b4 .LASF318
C:\Users\Jesper\AppData\Local\Temp\cc4647b3.s:11162  .debug_str:0000000000001245 .LASF319
C:\Users\Jesper\AppData\Local\Temp\cc4647b3.s:11476  .debug_str:0000000000001991 .LASF320
C:\Users\Jesper\AppData\Local\Temp\cc4647b3.s:11414  .debug_str:000000000000182c .LASF321
C:\Users\Jesper\AppData\Local\Temp\cc4647b3.s:11388  .debug_str:00000000000017a0 .LASF322
C:\Users\Jesper\AppData\Local\Temp\cc4647b3.s:11564  .debug_str:0000000000001b8b .LASF323
C:\Users\Jesper\AppData\Local\Temp\cc4647b3.s:11266  .debug_str:0000000000001522 .LASF324
C:\Users\Jesper\AppData\Local\Temp\cc4647b3.s:10410  .debug_str:000000000000007c .LASF325
C:\Users\Jesper\AppData\Local\Temp\cc4647b3.s:10586  .debug_str:00000000000004fc .LASF326
C:\Users\Jesper\AppData\Local\Temp\cc4647b3.s:11268  .debug_str:000000000000152a .LASF327
C:\Users\Jesper\AppData\Local\Temp\cc4647b3.s:11206  .debug_str:000000000000137a .LASF328
C:\Users\Jesper\AppData\Local\Temp\cc4647b3.s:10418  .debug_str:00000000000000ab .LASF329
C:\Users\Jesper\AppData\Local\Temp\cc4647b3.s:11368  .debug_str:0000000000001749 .LASF330
C:\Users\Jesper\AppData\Local\Temp\cc4647b3.s:11532  .debug_str:0000000000001ae6 .LASF331
C:\Users\Jesper\AppData\Local\Temp\cc4647b3.s:10962  .debug_str:0000000000000da6 .LASF332
C:\Users\Jesper\AppData\Local\Temp\cc4647b3.s:11350  .debug_str:00000000000016f8 .LASF333
C:\Users\Jesper\AppData\Local\Temp\cc4647b3.s:10984  .debug_str:0000000000000e18 .LASF334
C:\Users\Jesper\AppData\Local\Temp\cc4647b3.s:11398  .debug_str:00000000000017e3 .LASF335
C:\Users\Jesper\AppData\Local\Temp\cc4647b3.s:10994  .debug_str:0000000000000e5a .LASF336
C:\Users\Jesper\AppData\Local\Temp\cc4647b3.s:11096  .debug_str:00000000000010a1 .LASF337
C:\Users\Jesper\AppData\Local\Temp\cc4647b3.s:10866  .debug_str:0000000000000b42 .LASF338
C:\Users\Jesper\AppData\Local\Temp\cc4647b3.s:10470  .debug_str:00000000000001e2 .LASF339
GAS LISTING C:\Users\Jesper\AppData\Local\Temp\cc4647b3.s 			page 52


C:\Users\Jesper\AppData\Local\Temp\cc4647b3.s:10476  .debug_str:00000000000001f9 .LASF340
C:\Users\Jesper\AppData\Local\Temp\cc4647b3.s:11628  .debug_str:0000000000001ce4 .LASF341
C:\Users\Jesper\AppData\Local\Temp\cc4647b3.s:11580  .debug_str:0000000000001bd7 .LASF342
C:\Users\Jesper\AppData\Local\Temp\cc4647b3.s:10894  .debug_str:0000000000000be8 .LASF343
C:\Users\Jesper\AppData\Local\Temp\cc4647b3.s:10650  .debug_str:000000000000065e .LASF344
C:\Users\Jesper\AppData\Local\Temp\cc4647b3.s:11482  .debug_str:00000000000019ad .LASF345
C:\Users\Jesper\AppData\Local\Temp\cc4647b3.s:11232  .debug_str:0000000000001456 .LASF346
C:\Users\Jesper\AppData\Local\Temp\cc4647b3.s:11238  .debug_str:0000000000001477 .LASF347
C:\Users\Jesper\AppData\Local\Temp\cc4647b3.s:11614  .debug_str:0000000000001c9d .LASF348
C:\Users\Jesper\AppData\Local\Temp\cc4647b3.s:10582  .debug_str:00000000000004e9 .LASF349
C:\Users\Jesper\AppData\Local\Temp\cc4647b3.s:10514  .debug_str:00000000000002e2 .LASF350
C:\Users\Jesper\AppData\Local\Temp\cc4647b3.s:11304  .debug_str:00000000000015f4 .LASF351
C:\Users\Jesper\AppData\Local\Temp\cc4647b3.s:11474  .debug_str:0000000000001988 .LASF352
C:\Users\Jesper\AppData\Local\Temp\cc4647b3.s:11508  .debug_str:0000000000001a45 .LASF353
C:\Users\Jesper\AppData\Local\Temp\cc4647b3.s:11192  .debug_str:00000000000012cf .LASF354
C:\Users\Jesper\AppData\Local\Temp\cc4647b3.s:10758  .debug_str:00000000000008c5 .LASF355
C:\Users\Jesper\AppData\Local\Temp\cc4647b3.s:10776  .debug_str:0000000000000941 .LASF356
C:\Users\Jesper\AppData\Local\Temp\cc4647b3.s:11506  .debug_str:0000000000001a3e .LASF357
C:\Users\Jesper\AppData\Local\Temp\cc4647b3.s:11348  .debug_str:00000000000016f2 .LASF358
C:\Users\Jesper\AppData\Local\Temp\cc4647b3.s:10612  .debug_str:0000000000000573 .LASF359
C:\Users\Jesper\AppData\Local\Temp\cc4647b3.s:11582  .debug_str:0000000000001be1 .LASF360
C:\Users\Jesper\AppData\Local\Temp\cc4647b3.s:11188  .debug_str:00000000000012c3 .LASF361
C:\Users\Jesper\AppData\Local\Temp\cc4647b3.s:10588  .debug_str:0000000000000502 .LASF362
C:\Users\Jesper\AppData\Local\Temp\cc4647b3.s:11496  .debug_str:0000000000001a02 .LASF363
C:\Users\Jesper\AppData\Local\Temp\cc4647b3.s:10860  .debug_str:0000000000000b2a .LASF364
C:\Users\Jesper\AppData\Local\Temp\cc4647b3.s:10432  .debug_str:00000000000000f5 .LASF365
C:\Users\Jesper\AppData\Local\Temp\cc4647b3.s:10440  .debug_str:000000000000013c .LASF366
C:\Users\Jesper\AppData\Local\Temp\cc4647b3.s:11258  .debug_str:00000000000014e8 .LASF367
C:\Users\Jesper\AppData\Local\Temp\cc4647b3.s:10780  .debug_str:000000000000095d .LASF368
C:\Users\Jesper\AppData\Local\Temp\cc4647b3.s:11166  .debug_str:0000000000001255 .LASF369
C:\Users\Jesper\AppData\Local\Temp\cc4647b3.s:10474  .debug_str:00000000000001f3 .LASF370
C:\Users\Jesper\AppData\Local\Temp\cc4647b3.s:11320  .debug_str:0000000000001655 .LASF371
C:\Users\Jesper\AppData\Local\Temp\cc4647b3.s:10888  .debug_str:0000000000000bcd .LASF372
C:\Users\Jesper\AppData\Local\Temp\cc4647b3.s:11402  .debug_str:00000000000017f1 .LASF373
C:\Users\Jesper\AppData\Local\Temp\cc4647b3.s:10516  .debug_str:00000000000002ea .LASF374
C:\Users\Jesper\AppData\Local\Temp\cc4647b3.s:11178  .debug_str:000000000000128f .LASF375
C:\Users\Jesper\AppData\Local\Temp\cc4647b3.s:10944  .debug_str:0000000000000d32 .LASF376
C:\Users\Jesper\AppData\Local\Temp\cc4647b3.s:10532  .debug_str:00000000000003b4 .LASF377
C:\Users\Jesper\AppData\Local\Temp\cc4647b3.s:10970  .debug_str:0000000000000dcd .LASF378
C:\Users\Jesper\AppData\Local\Temp\cc4647b3.s:10802  .debug_str:00000000000009e4 .LASF379
C:\Users\Jesper\AppData\Local\Temp\cc4647b3.s:11310  .debug_str:000000000000160d .LASF380
C:\Users\Jesper\AppData\Local\Temp\cc4647b3.s:11172  .debug_str:0000000000001272 .LASF381
C:\Users\Jesper\AppData\Local\Temp\cc4647b3.s:11498  .debug_str:0000000000001a0b .LASF382
C:\Users\Jesper\AppData\Local\Temp\cc4647b3.s:11212  .debug_str:0000000000001395 .LASF383
C:\Users\Jesper\AppData\Local\Temp\cc4647b3.s:11616  .debug_str:0000000000001ca8 .LASF384
C:\Users\Jesper\AppData\Local\Temp\cc4647b3.s:11530  .debug_str:0000000000001ade .LASF385
C:\Users\Jesper\AppData\Local\Temp\cc4647b3.s:10942  .debug_str:0000000000000d27 .LASF386
C:\Users\Jesper\AppData\Local\Temp\cc4647b3.s:11004  .debug_str:0000000000000e8f .LASF387
C:\Users\Jesper\AppData\Local\Temp\cc4647b3.s:11546  .debug_str:0000000000001b2e .LASF388
C:\Users\Jesper\AppData\Local\Temp\cc4647b3.s:10610  .debug_str:0000000000000569 .LASF389
C:\Users\Jesper\AppData\Local\Temp\cc4647b3.s:10926  .debug_str:0000000000000cb1 .LASF390
C:\Users\Jesper\AppData\Local\Temp\cc4647b3.s:11088  .debug_str:000000000000107d .LASF391
C:\Users\Jesper\AppData\Local\Temp\cc4647b3.s:10448  .debug_str:000000000000016c .LASF392
C:\Users\Jesper\AppData\Local\Temp\cc4647b3.s:10892  .debug_str:0000000000000be0 .LASF393
C:\Users\Jesper\AppData\Local\Temp\cc4647b3.s:11164  .debug_str:0000000000001250 .LASF394
C:\Users\Jesper\AppData\Local\Temp\cc4647b3.s:11006  .debug_str:0000000000000e99 .LASF395
C:\Users\Jesper\AppData\Local\Temp\cc4647b3.s:10880  .debug_str:0000000000000b84 .LASF396
GAS LISTING C:\Users\Jesper\AppData\Local\Temp\cc4647b3.s 			page 53


C:\Users\Jesper\AppData\Local\Temp\cc4647b3.s:11062  .debug_str:0000000000000fd9 .LASF397
C:\Users\Jesper\AppData\Local\Temp\cc4647b3.s:10424  .debug_str:00000000000000c7 .LASF398
C:\Users\Jesper\AppData\Local\Temp\cc4647b3.s:10768  .debug_str:000000000000090a .LASF399
C:\Users\Jesper\AppData\Local\Temp\cc4647b3.s:11356  .debug_str:0000000000001713 .LASF400
C:\Users\Jesper\AppData\Local\Temp\cc4647b3.s:11094  .debug_str:000000000000109b .LASF401
C:\Users\Jesper\AppData\Local\Temp\cc4647b3.s:11054  .debug_str:0000000000000fab .LASF402
C:\Users\Jesper\AppData\Local\Temp\cc4647b3.s:11090  .debug_str:0000000000001087 .LASF403
C:\Users\Jesper\AppData\Local\Temp\cc4647b3.s:11308  .debug_str:0000000000001605 .LASF404
C:\Users\Jesper\AppData\Local\Temp\cc4647b3.s:11250  .debug_str:00000000000014ba .LASF405
C:\Users\Jesper\AppData\Local\Temp\cc4647b3.s:10528  .debug_str:00000000000003a2 .LASF406
C:\Users\Jesper\AppData\Local\Temp\cc4647b3.s:11570  .debug_str:0000000000001ba4 .LASF407
C:\Users\Jesper\AppData\Local\Temp\cc4647b3.s:10678  .debug_str:00000000000006fd .LASF408
C:\Users\Jesper\AppData\Local\Temp\cc4647b3.s:11338  .debug_str:00000000000016ac .LASF409
C:\Users\Jesper\AppData\Local\Temp\cc4647b3.s:10446  .debug_str:000000000000015f .LASF410
C:\Users\Jesper\AppData\Local\Temp\cc4647b3.s:10644  .debug_str:0000000000000636 .LASF411
C:\Users\Jesper\AppData\Local\Temp\cc4647b3.s:11076  .debug_str:000000000000102a .LASF412
C:\Users\Jesper\AppData\Local\Temp\cc4647b3.s:11182  .debug_str:00000000000012a7 .LASF413
C:\Users\Jesper\AppData\Local\Temp\cc4647b3.s:11376  .debug_str:0000000000001774 .LASF414
C:\Users\Jesper\AppData\Local\Temp\cc4647b3.s:11448  .debug_str:00000000000018fc .LASF415
C:\Users\Jesper\AppData\Local\Temp\cc4647b3.s:11278  .debug_str:0000000000001562 .LASF416
C:\Users\Jesper\AppData\Local\Temp\cc4647b3.s:11176  .debug_str:0000000000001281 .LASF417
C:\Users\Jesper\AppData\Local\Temp\cc4647b3.s:11270  .debug_str:0000000000001531 .LASF418
C:\Users\Jesper\AppData\Local\Temp\cc4647b3.s:10978  .debug_str:0000000000000df8 .LASF419
C:\Users\Jesper\AppData\Local\Temp\cc4647b3.s:11630  .debug_str:0000000000001ced .LASF420
C:\Users\Jesper\AppData\Local\Temp\cc4647b3.s:10600  .debug_str:000000000000053b .LASF421
C:\Users\Jesper\AppData\Local\Temp\cc4647b3.s:11342  .debug_str:00000000000016c3 .LASF422
C:\Users\Jesper\AppData\Local\Temp\cc4647b3.s:11592  .debug_str:0000000000001c16 .LASF423
C:\Users\Jesper\AppData\Local\Temp\cc4647b3.s:11150  .debug_str:00000000000011fc .LASF424
C:\Users\Jesper\AppData\Local\Temp\cc4647b3.s:11112  .debug_str:00000000000010f7 .LASF425
C:\Users\Jesper\AppData\Local\Temp\cc4647b3.s:11296  .debug_str:00000000000015c6 .LASF426
C:\Users\Jesper\AppData\Local\Temp\cc4647b3.s:11514  .debug_str:0000000000001a63 .LASF427
C:\Users\Jesper\AppData\Local\Temp\cc4647b3.s:11068  .debug_str:0000000000000ffe .LASF428
C:\Users\Jesper\AppData\Local\Temp\cc4647b3.s:10468  .debug_str:00000000000001da .LASF429
C:\Users\Jesper\AppData\Local\Temp\cc4647b3.s:10416  .debug_str:00000000000000a0 .LASF623
C:\Users\Jesper\AppData\Local\Temp\cc4647b3.s:10604  .debug_str:0000000000000552 .LASF430
C:\Users\Jesper\AppData\Local\Temp\cc4647b3.s:11216  .debug_str:00000000000013c3 .LASF431
C:\Users\Jesper\AppData\Local\Temp\cc4647b3.s:10736  .debug_str:000000000000084e .LASF432
C:\Users\Jesper\AppData\Local\Temp\cc4647b3.s:11620  .debug_str:0000000000001cc7 .LASF433
C:\Users\Jesper\AppData\Local\Temp\cc4647b3.s:11516  .debug_str:0000000000001a6a .LASF434
C:\Users\Jesper\AppData\Local\Temp\cc4647b3.s:10690  .debug_str:0000000000000753 .LASF435
C:\Users\Jesper\AppData\Local\Temp\cc4647b3.s:10710  .debug_str:00000000000007df .LASF436
C:\Users\Jesper\AppData\Local\Temp\cc4647b3.s:10496  .debug_str:0000000000000268 .LASF437
C:\Users\Jesper\AppData\Local\Temp\cc4647b3.s:11214  .debug_str:00000000000013a0 .LASF438
C:\Users\Jesper\AppData\Local\Temp\cc4647b3.s:11522  .debug_str:0000000000001aab .LASF439
C:\Users\Jesper\AppData\Local\Temp\cc4647b3.s:10792  .debug_str:0000000000000999 .LASF440
C:\Users\Jesper\AppData\Local\Temp\cc4647b3.s:10688  .debug_str:000000000000072e .LASF441
C:\Users\Jesper\AppData\Local\Temp\cc4647b3.s:10624  .debug_str:00000000000005bf .LASF442
C:\Users\Jesper\AppData\Local\Temp\cc4647b3.s:11492  .debug_str:00000000000019e5 .LASF443
C:\Users\Jesper\AppData\Local\Temp\cc4647b3.s:10652  .debug_str:0000000000000667 .LASF444
C:\Users\Jesper\AppData\Local\Temp\cc4647b3.s:10900  .debug_str:0000000000000c0a .LASF445
C:\Users\Jesper\AppData\Local\Temp\cc4647b3.s:10536  .debug_str:00000000000003d0 .LASF446
C:\Users\Jesper\AppData\Local\Temp\cc4647b3.s:10460  .debug_str:00000000000001a3 .LASF447
C:\Users\Jesper\AppData\Local\Temp\cc4647b3.s:10760  .debug_str:00000000000008ca .LASF448
C:\Users\Jesper\AppData\Local\Temp\cc4647b3.s:11106  .debug_str:00000000000010ce .LASF449
C:\Users\Jesper\AppData\Local\Temp\cc4647b3.s:10408  .debug_str:0000000000000063 .LASF450
C:\Users\Jesper\AppData\Local\Temp\cc4647b3.s:10436  .debug_str:000000000000010c .LASF451
C:\Users\Jesper\AppData\Local\Temp\cc4647b3.s:11510  .debug_str:0000000000001a4d .LASF452
GAS LISTING C:\Users\Jesper\AppData\Local\Temp\cc4647b3.s 			page 54


C:\Users\Jesper\AppData\Local\Temp\cc4647b3.s:11518  .debug_str:0000000000001a90 .LASF453
C:\Users\Jesper\AppData\Local\Temp\cc4647b3.s:10622  .debug_str:00000000000005a6 .LASF454
C:\Users\Jesper\AppData\Local\Temp\cc4647b3.s:10442  .debug_str:0000000000000143 .LASF455
C:\Users\Jesper\AppData\Local\Temp\cc4647b3.s:10968  .debug_str:0000000000000dc3 .LASF456
C:\Users\Jesper\AppData\Local\Temp\cc4647b3.s:11082  .debug_str:0000000000001052 .LASF457
C:\Users\Jesper\AppData\Local\Temp\cc4647b3.s:10500  .debug_str:000000000000029c .LASF458
C:\Users\Jesper\AppData\Local\Temp\cc4647b3.s:10908  .debug_str:0000000000000c37 .LASF459
C:\Users\Jesper\AppData\Local\Temp\cc4647b3.s:10826  .debug_str:0000000000000a5f .LASF460
C:\Users\Jesper\AppData\Local\Temp\cc4647b3.s:10814  .debug_str:0000000000000a12 .LASF461
C:\Users\Jesper\AppData\Local\Temp\cc4647b3.s:10572  .debug_str:00000000000004b2 .LASF462
C:\Users\Jesper\AppData\Local\Temp\cc4647b3.s:11190  .debug_str:00000000000012ca .LASF463
C:\Users\Jesper\AppData\Local\Temp\cc4647b3.s:10658  .debug_str:0000000000000698 .LASF464
C:\Users\Jesper\AppData\Local\Temp\cc4647b3.s:10804  .debug_str:00000000000009eb .LASF465
C:\Users\Jesper\AppData\Local\Temp\cc4647b3.s:10722  .debug_str:0000000000000812 .LASF466
C:\Users\Jesper\AppData\Local\Temp\cc4647b3.s:10608  .debug_str:0000000000000564 .LASF467
C:\Users\Jesper\AppData\Local\Temp\cc4647b3.s:11198  .debug_str:00000000000012e9 .LASF468
C:\Users\Jesper\AppData\Local\Temp\cc4647b3.s:11618  .debug_str:0000000000001cc1 .LASF469
C:\Users\Jesper\AppData\Local\Temp\cc4647b3.s:11494  .debug_str:00000000000019f9 .LASF470
C:\Users\Jesper\AppData\Local\Temp\cc4647b3.s:11272  .debug_str:000000000000153b .LASF471
C:\Users\Jesper\AppData\Local\Temp\cc4647b3.s:11382  .debug_str:000000000000178b .LASF472
C:\Users\Jesper\AppData\Local\Temp\cc4647b3.s:10556  .debug_str:0000000000000451 .LASF473
C:\Users\Jesper\AppData\Local\Temp\cc4647b3.s:11606  .debug_str:0000000000001c77 .LASF474
C:\Users\Jesper\AppData\Local\Temp\cc4647b3.s:10786  .debug_str:000000000000097b .LASF475
C:\Users\Jesper\AppData\Local\Temp\cc4647b3.s:10508  .debug_str:00000000000002cc .LASF476
C:\Users\Jesper\AppData\Local\Temp\cc4647b3.s:11334  .debug_str:000000000000169e .LASF477
C:\Users\Jesper\AppData\Local\Temp\cc4647b3.s:10976  .debug_str:0000000000000df0 .LASF478
C:\Users\Jesper\AppData\Local\Temp\cc4647b3.s:10712  .debug_str:00000000000007ee .LASF479
C:\Users\Jesper\AppData\Local\Temp\cc4647b3.s:11282  .debug_str:0000000000001579 .LASF480
C:\Users\Jesper\AppData\Local\Temp\cc4647b3.s:10400  .debug_str:0000000000000027 .LASF481
C:\Users\Jesper\AppData\Local\Temp\cc4647b3.s:11464  .debug_str:0000000000001954 .LASF482
C:\Users\Jesper\AppData\Local\Temp\cc4647b3.s:10964  .debug_str:0000000000000db8 .LASF483
C:\Users\Jesper\AppData\Local\Temp\cc4647b3.s:11008  .debug_str:0000000000000ea2 .LASF484
C:\Users\Jesper\AppData\Local\Temp\cc4647b3.s:11366  .debug_str:0000000000001742 .LASF485
C:\Users\Jesper\AppData\Local\Temp\cc4647b3.s:11456  .debug_str:000000000000192b .LASF486
C:\Users\Jesper\AppData\Local\Temp\cc4647b3.s:10686  .debug_str:0000000000000726 .LASF487
C:\Users\Jesper\AppData\Local\Temp\cc4647b3.s:11154  .debug_str:000000000000121b .LASF488
C:\Users\Jesper\AppData\Local\Temp\cc4647b3.s:11168  .debug_str:000000000000125b .LASF489
C:\Users\Jesper\AppData\Local\Temp\cc4647b3.s:10660  .debug_str:000000000000069e .LASF490
C:\Users\Jesper\AppData\Local\Temp\cc4647b3.s:10584  .debug_str:00000000000004f7 .LASF491
C:\Users\Jesper\AppData\Local\Temp\cc4647b3.s:10694  .debug_str:0000000000000770 .LASF492
C:\Users\Jesper\AppData\Local\Temp\cc4647b3.s:11416  .debug_str:000000000000183c .LASF493
C:\Users\Jesper\AppData\Local\Temp\cc4647b3.s:11558  .debug_str:0000000000001b6d .LASF494
C:\Users\Jesper\AppData\Local\Temp\cc4647b3.s:11524  .debug_str:0000000000001abc .LASF495
C:\Users\Jesper\AppData\Local\Temp\cc4647b3.s:10656  .debug_str:000000000000068d .LASF496
C:\Users\Jesper\AppData\Local\Temp\cc4647b3.s:10732  .debug_str:000000000000083b .LASF497
C:\Users\Jesper\AppData\Local\Temp\cc4647b3.s:11236  .debug_str:000000000000146c .LASF498
C:\Users\Jesper\AppData\Local\Temp\cc4647b3.s:10632  .debug_str:00000000000005f6 .LASF499
C:\Users\Jesper\AppData\Local\Temp\cc4647b3.s:11020  .debug_str:0000000000000edc .LASF500
C:\Users\Jesper\AppData\Local\Temp\cc4647b3.s:10800  .debug_str:00000000000009da .LASF501
C:\Users\Jesper\AppData\Local\Temp\cc4647b3.s:11578  .debug_str:0000000000001bce .LASF502
C:\Users\Jesper\AppData\Local\Temp\cc4647b3.s:11058  .debug_str:0000000000000fbd .LASF503
C:\Users\Jesper\AppData\Local\Temp\cc4647b3.s:10642  .debug_str:0000000000000623 .LASF504
C:\Users\Jesper\AppData\Local\Temp\cc4647b3.s:10952  .debug_str:0000000000000d62 .LASF505
C:\Users\Jesper\AppData\Local\Temp\cc4647b3.s:11218  .debug_str:00000000000013d6 .LASF506
C:\Users\Jesper\AppData\Local\Temp\cc4647b3.s:11594  .debug_str:0000000000001c27 .LASF507
C:\Users\Jesper\AppData\Local\Temp\cc4647b3.s:11220  .debug_str:00000000000013e5 .LASF508
C:\Users\Jesper\AppData\Local\Temp\cc4647b3.s:10452  .debug_str:000000000000017d .LASF509
GAS LISTING C:\Users\Jesper\AppData\Local\Temp\cc4647b3.s 			page 55


C:\Users\Jesper\AppData\Local\Temp\cc4647b3.s:11026  .debug_str:0000000000000f1b .LASF510
C:\Users\Jesper\AppData\Local\Temp\cc4647b3.s:11130  .debug_str:0000000000001163 .LASF511
C:\Users\Jesper\AppData\Local\Temp\cc4647b3.s:10778  .debug_str:0000000000000946 .LASF512
C:\Users\Jesper\AppData\Local\Temp\cc4647b3.s:10534  .debug_str:00000000000003bb .LASF513
C:\Users\Jesper\AppData\Local\Temp\cc4647b3.s:10852  .debug_str:0000000000000b07 .LASF514
C:\Users\Jesper\AppData\Local\Temp\cc4647b3.s:11108  .debug_str:00000000000010e8 .LASF515
C:\Users\Jesper\AppData\Local\Temp\cc4647b3.s:10544  .debug_str:0000000000000413 .LASF516
C:\Users\Jesper\AppData\Local\Temp\cc4647b3.s:10806  .debug_str:00000000000009f3 .LASF517
C:\Users\Jesper\AppData\Local\Temp\cc4647b3.s:10808  .debug_str:00000000000009f8 .LASF518
C:\Users\Jesper\AppData\Local\Temp\cc4647b3.s:10810  .debug_str:00000000000009fd .LASF519
C:\Users\Jesper\AppData\Local\Temp\cc4647b3.s:11604  .debug_str:0000000000001c72 .LASF520
C:\Users\Jesper\AppData\Local\Temp\cc4647b3.s:11336  .debug_str:00000000000016a6 .LASF521
C:\Users\Jesper\AppData\Local\Temp\cc4647b3.s:10904  .debug_str:0000000000000c2b .LASF522
C:\Users\Jesper\AppData\Local\Temp\cc4647b3.s:10906  .debug_str:0000000000000c31 .LASF523
C:\Users\Jesper\AppData\Local\Temp\cc4647b3.s:11140  .debug_str:00000000000011a7 .LASF524
C:\Users\Jesper\AppData\Local\Temp\cc4647b3.s:10874  .debug_str:0000000000000b6b .LASF525
C:\Users\Jesper\AppData\Local\Temp\cc4647b3.s:11184  .debug_str:00000000000012b2 .LASF526
C:\Users\Jesper\AppData\Local\Temp\cc4647b3.s:11460  .debug_str:000000000000193e .LASF527
C:\Users\Jesper\AppData\Local\Temp\cc4647b3.s:10840  .debug_str:0000000000000ab3 .LASF528
C:\Users\Jesper\AppData\Local\Temp\cc4647b3.s:10868  .debug_str:0000000000000b47 .LASF529
C:\Users\Jesper\AppData\Local\Temp\cc4647b3.s:11174  .debug_str:000000000000127a .LASF530
C:\Users\Jesper\AppData\Local\Temp\cc4647b3.s:10530  .debug_str:00000000000003a8 .LASF531
C:\Users\Jesper\AppData\Local\Temp\cc4647b3.s:10580  .debug_str:00000000000004d7 .LASF532
C:\Users\Jesper\AppData\Local\Temp\cc4647b3.s:11132  .debug_str:0000000000001176 .LASF533
C:\Users\Jesper\AppData\Local\Temp\cc4647b3.s:10554  .debug_str:000000000000044a .LASF536
C:\Users\Jesper\AppData\Local\Temp\cc4647b3.s:1271   .text.millis:0000000000000000 .LFB20
C:\Users\Jesper\AppData\Local\Temp\cc4647b3.s:1328   .text.millis:0000000000000062 .LFE20
C:\Users\Jesper\AppData\Local\Temp\cc4647b3.s:9790   .debug_loc:0000000000000000 .LLST23
C:\Users\Jesper\AppData\Local\Temp\cc4647b3.s:10498  .debug_str:0000000000000296 .LASF539
C:\Users\Jesper\AppData\Local\Temp\cc4647b3.s:9808   .debug_loc:000000000000002c .LLST24
C:\Users\Jesper\AppData\Local\Temp\cc4647b3.s:1287   .text.millis:0000000000000010 .LVL138
C:\Users\Jesper\AppData\Local\Temp\cc4647b3.s:10558  .debug_str:000000000000045b .LASF546
C:\Users\Jesper\AppData\Local\Temp\cc4647b3.s:1243   .text.append_newLine:0000000000000000 .LFB19
C:\Users\Jesper\AppData\Local\Temp\cc4647b3.s:1259   .text.append_newLine:000000000000000e .LFE19
C:\Users\Jesper\AppData\Local\Temp\cc4647b3.s:11120  .debug_str:0000000000001132 .LASF534
C:\Users\Jesper\AppData\Local\Temp\cc4647b3.s:11298  .debug_str:00000000000015cf .LASF535
C:\Users\Jesper\AppData\Local\Temp\cc4647b3.s:9820   .debug_loc:0000000000000044 .LLST22
C:\Users\Jesper\AppData\Local\Temp\cc4647b3.s:11302  .debug_str:00000000000015df .LASF537
C:\Users\Jesper\AppData\Local\Temp\cc4647b3.s:1191   .text.append_int_to_string:0000000000000000 .LFB18
C:\Users\Jesper\AppData\Local\Temp\cc4647b3.s:1236   .text.append_int_to_string:0000000000000030 .LFE18
C:\Users\Jesper\AppData\Local\Temp\cc4647b3.s:9834   .debug_loc:0000000000000065 .LLST19
C:\Users\Jesper\AppData\Local\Temp\cc4647b3.s:9852   .debug_loc:0000000000000091 .LLST20
C:\Users\Jesper\AppData\Local\Temp\cc4647b3.s:10862  .debug_str:0000000000000b32 .LASF538
C:\Users\Jesper\AppData\Local\Temp\cc4647b3.s:9870   .debug_loc:00000000000000bd .LLST21
C:\Users\Jesper\AppData\Local\Temp\cc4647b3.s:1217   .text.append_int_to_string:000000000000001c .LVL133
C:\Users\Jesper\AppData\Local\Temp\cc4647b3.s:1223   .text.append_int_to_string:0000000000000028 .LVL134
C:\Users\Jesper\AppData\Local\Temp\cc4647b3.s:10774  .debug_str:0000000000000933 .LASF540
C:\Users\Jesper\AppData\Local\Temp\cc4647b3.s:1060   .text.int_to_string:0000000000000000 .LFB17
C:\Users\Jesper\AppData\Local\Temp\cc4647b3.s:1184   .text.int_to_string:0000000000000088 .LFE17
C:\Users\Jesper\AppData\Local\Temp\cc4647b3.s:9884   .debug_loc:00000000000000de .LLST13
C:\Users\Jesper\AppData\Local\Temp\cc4647b3.s:9910   .debug_loc:0000000000000120 .LLST14
C:\Users\Jesper\AppData\Local\Temp\cc4647b3.s:9929   .debug_loc:0000000000000154 .LLST15
C:\Users\Jesper\AppData\Local\Temp\cc4647b3.s:11052  .debug_str:0000000000000fa3 .LASF541
C:\Users\Jesper\AppData\Local\Temp\cc4647b3.s:9979   .debug_loc:00000000000001d1 .LLST16
C:\Users\Jesper\AppData\Local\Temp\cc4647b3.s:10550  .debug_str:0000000000000439 .LASF542
C:\Users\Jesper\AppData\Local\Temp\cc4647b3.s:10002  .debug_loc:000000000000020b .LLST17
C:\Users\Jesper\AppData\Local\Temp\cc4647b3.s:1096   .text.int_to_string:0000000000000024 .LBB11
GAS LISTING C:\Users\Jesper\AppData\Local\Temp\cc4647b3.s 			page 56


C:\Users\Jesper\AppData\Local\Temp\cc4647b3.s:1133   .text.int_to_string:0000000000000050 .LBE11
C:\Users\Jesper\AppData\Local\Temp\cc4647b3.s:10878  .debug_str:0000000000000b7e .LASF543
C:\Users\Jesper\AppData\Local\Temp\cc4647b3.s:10013  .debug_loc:0000000000000229 .LLST18
C:\Users\Jesper\AppData\Local\Temp\cc4647b3.s:10538  .debug_str:00000000000003e3 .LASF550
C:\Users\Jesper\AppData\Local\Temp\cc4647b3.s:922    .text.timer_interrupt_config:0000000000000000 .LFB16
C:\Users\Jesper\AppData\Local\Temp\cc4647b3.s:1053   .text.timer_interrupt_config:00000000000000fa .LFE16
C:\Users\Jesper\AppData\Local\Temp\cc4647b3.s:10020  .debug_loc:000000000000023c .LLST11
C:\Users\Jesper\AppData\Local\Temp\cc4647b3.s:11080  .debug_str:0000000000001041 .LASF544
C:\Users\Jesper\AppData\Local\Temp\cc4647b3.s:10956  .debug_str:0000000000000d81 .LASF545
C:\Users\Jesper\AppData\Local\Temp\cc4647b3.s:10038  .debug_loc:0000000000000268 .LLST12
C:\Users\Jesper\AppData\Local\Temp\cc4647b3.s:943    .text.timer_interrupt_config:0000000000000016 .LVL97
C:\Users\Jesper\AppData\Local\Temp\cc4647b3.s:947    .text.timer_interrupt_config:0000000000000022 .LVL98
C:\Users\Jesper\AppData\Local\Temp\cc4647b3.s:951    .text.timer_interrupt_config:000000000000002e .LVL99
C:\Users\Jesper\AppData\Local\Temp\cc4647b3.s:955    .text.timer_interrupt_config:0000000000000038 .LVL100
C:\Users\Jesper\AppData\Local\Temp\cc4647b3.s:985    .text.timer_interrupt_config:0000000000000066 .LVL102
C:\Users\Jesper\AppData\Local\Temp\cc4647b3.s:989    .text.timer_interrupt_config:0000000000000070 .LVL103
C:\Users\Jesper\AppData\Local\Temp\cc4647b3.s:1007   .text.timer_interrupt_config:000000000000008e .LVL104
C:\Users\Jesper\AppData\Local\Temp\cc4647b3.s:1016   .text.timer_interrupt_config:00000000000000aa .LVL105
C:\Users\Jesper\AppData\Local\Temp\cc4647b3.s:1022   .text.timer_interrupt_config:00000000000000ba .LVL106
C:\Users\Jesper\AppData\Local\Temp\cc4647b3.s:1028   .text.timer_interrupt_config:00000000000000ca .LVL107
C:\Users\Jesper\AppData\Local\Temp\cc4647b3.s:1033   .text.timer_interrupt_config:00000000000000d8 .LVL108
C:\Users\Jesper\AppData\Local\Temp\cc4647b3.s:1038   .text.timer_interrupt_config:00000000000000e6 .LVL109
C:\Users\Jesper\AppData\Local\Temp\cc4647b3.s:1042   .text.timer_interrupt_config:00000000000000f2 .LVL110
C:\Users\Jesper\AppData\Local\Temp\cc4647b3.s:10594  .debug_str:0000000000000520 .LASF547
C:\Users\Jesper\AppData\Local\Temp\cc4647b3.s:868    .text.init_mpu:0000000000000000 .LFB15
C:\Users\Jesper\AppData\Local\Temp\cc4647b3.s:915    .text.init_mpu:0000000000000054 .LFE15
C:\Users\Jesper\AppData\Local\Temp\cc4647b3.s:10045  .debug_loc:000000000000027b .LLST10
C:\Users\Jesper\AppData\Local\Temp\cc4647b3.s:883    .text.init_mpu:0000000000000010 .LVL92
C:\Users\Jesper\AppData\Local\Temp\cc4647b3.s:887    .text.init_mpu:000000000000001c .LVL93
C:\Users\Jesper\AppData\Local\Temp\cc4647b3.s:895    .text.init_mpu:0000000000000034 .LVL94
C:\Users\Jesper\AppData\Local\Temp\cc4647b3.s:900    .text.init_mpu:0000000000000044 .LVL95
C:\Users\Jesper\AppData\Local\Temp\cc4647b3.s:913    .text.init_mpu:0000000000000054 .LVL96
C:\Users\Jesper\AppData\Local\Temp\cc4647b3.s:10916  .debug_str:0000000000000c64 .LASF548
C:\Users\Jesper\AppData\Local\Temp\cc4647b3.s:848    .text.led_on_off_B1:0000000000000000 .LFB14
C:\Users\Jesper\AppData\Local\Temp\cc4647b3.s:861    .text.led_on_off_B1:0000000000000014 .LFE14
C:\Users\Jesper\AppData\Local\Temp\cc4647b3.s:10458  .debug_str:000000000000019c .LASF549
C:\Users\Jesper\AppData\Local\Temp\cc4647b3.s:10063  .debug_loc:00000000000002a7 .LLST9
C:\Users\Jesper\AppData\Local\Temp\cc4647b3.s:859    .text.led_on_off_B1:0000000000000014 .LVL91
C:\Users\Jesper\AppData\Local\Temp\cc4647b3.s:11016  .debug_str:0000000000000ec9 .LASF551
C:\Users\Jesper\AppData\Local\Temp\cc4647b3.s:830    .text.led_off_B0:0000000000000000 .LFB13
C:\Users\Jesper\AppData\Local\Temp\cc4647b3.s:841    .text.led_off_B0:0000000000000014 .LFE13
C:\Users\Jesper\AppData\Local\Temp\cc4647b3.s:839    .text.led_off_B0:0000000000000014 .LVL88
C:\Users\Jesper\AppData\Local\Temp\cc4647b3.s:10858  .debug_str:0000000000000b20 .LASF552
C:\Users\Jesper\AppData\Local\Temp\cc4647b3.s:812    .text.led_on_B0:0000000000000000 .LFB12
C:\Users\Jesper\AppData\Local\Temp\cc4647b3.s:823    .text.led_on_B0:0000000000000014 .LFE12
C:\Users\Jesper\AppData\Local\Temp\cc4647b3.s:821    .text.led_on_B0:0000000000000014 .LVL87
C:\Users\Jesper\AppData\Local\Temp\cc4647b3.s:11458  .debug_str:0000000000001933 .LASF553
C:\Users\Jesper\AppData\Local\Temp\cc4647b3.s:794    .text.led_off_B1:0000000000000000 .LFB11
C:\Users\Jesper\AppData\Local\Temp\cc4647b3.s:805    .text.led_off_B1:0000000000000014 .LFE11
C:\Users\Jesper\AppData\Local\Temp\cc4647b3.s:803    .text.led_off_B1:0000000000000014 .LVL86
C:\Users\Jesper\AppData\Local\Temp\cc4647b3.s:11086  .debug_str:0000000000001073 .LASF554
C:\Users\Jesper\AppData\Local\Temp\cc4647b3.s:776    .text.led_on_B1:0000000000000000 .LFB10
C:\Users\Jesper\AppData\Local\Temp\cc4647b3.s:787    .text.led_on_B1:0000000000000014 .LFE10
C:\Users\Jesper\AppData\Local\Temp\cc4647b3.s:785    .text.led_on_B1:0000000000000014 .LVL85
C:\Users\Jesper\AppData\Local\Temp\cc4647b3.s:11286  .debug_str:000000000000158a .LASF555
C:\Users\Jesper\AppData\Local\Temp\cc4647b3.s:733    .text.ledInit:0000000000000000 .LFB9
C:\Users\Jesper\AppData\Local\Temp\cc4647b3.s:769    .text.ledInit:000000000000002a .LFE9
GAS LISTING C:\Users\Jesper\AppData\Local\Temp\cc4647b3.s 			page 57


C:\Users\Jesper\AppData\Local\Temp\cc4647b3.s:10081  .debug_loc:00000000000002d3 .LLST8
C:\Users\Jesper\AppData\Local\Temp\cc4647b3.s:748    .text.ledInit:0000000000000010 .LVL83
C:\Users\Jesper\AppData\Local\Temp\cc4647b3.s:767    .text.ledInit:000000000000002a .LVL84
C:\Users\Jesper\AppData\Local\Temp\cc4647b3.s:11396  .debug_str:00000000000017d1 .LASF556
C:\Users\Jesper\AppData\Local\Temp\cc4647b3.s:576    .text.TIMER1_IRQHandler:0000000000000000 .LFB8
C:\Users\Jesper\AppData\Local\Temp\cc4647b3.s:726    .text.TIMER1_IRQHandler:000000000000011a .LFE8
C:\Users\Jesper\AppData\Local\Temp\cc4647b3.s:10099  .debug_loc:00000000000002ff .LLST7
C:\Users\Jesper\AppData\Local\Temp\cc4647b3.s:10462  .debug_str:00000000000001bd .LASF557
C:\Users\Jesper\AppData\Local\Temp\cc4647b3.s:10546  .debug_str:0000000000000420 .LASF560
C:\Users\Jesper\AppData\Local\Temp\cc4647b3.s:598    .text.TIMER1_IRQHandler:000000000000001e .LVL68
C:\Users\Jesper\AppData\Local\Temp\cc4647b3.s:605    .text.TIMER1_IRQHandler:000000000000002e .LVL69
C:\Users\Jesper\AppData\Local\Temp\cc4647b3.s:621    .text.TIMER1_IRQHandler:0000000000000042 .LVL70
C:\Users\Jesper\AppData\Local\Temp\cc4647b3.s:628    .text.TIMER1_IRQHandler:0000000000000052 .LVL71
C:\Users\Jesper\AppData\Local\Temp\cc4647b3.s:668    .text.TIMER1_IRQHandler:00000000000000a2 .LVL75
C:\Users\Jesper\AppData\Local\Temp\cc4647b3.s:677    .text.TIMER1_IRQHandler:00000000000000b4 .LVL76
C:\Users\Jesper\AppData\Local\Temp\cc4647b3.s:686    .text.TIMER1_IRQHandler:00000000000000c6 .LVL77
C:\Users\Jesper\AppData\Local\Temp\cc4647b3.s:691    .text.TIMER1_IRQHandler:00000000000000d0 .LVL78
C:\Users\Jesper\AppData\Local\Temp\cc4647b3.s:699    .text.TIMER1_IRQHandler:00000000000000e8 .LVL79
C:\Users\Jesper\AppData\Local\Temp\cc4647b3.s:705    .text.TIMER1_IRQHandler:00000000000000fa .LVL80
C:\Users\Jesper\AppData\Local\Temp\cc4647b3.s:709    .text.TIMER1_IRQHandler:0000000000000104 .LVL81
C:\Users\Jesper\AppData\Local\Temp\cc4647b3.s:714    .text.TIMER1_IRQHandler:0000000000000112 .LVL82
C:\Users\Jesper\AppData\Local\Temp\cc4647b3.s:10636  .debug_str:000000000000060c .LASF558
C:\Users\Jesper\AppData\Local\Temp\cc4647b3.s:21     .text.startup.main:0000000000000000 .LFB7
C:\Users\Jesper\AppData\Local\Temp\cc4647b3.s:568    .text.startup.main:0000000000000426 .LFE7
C:\Users\Jesper\AppData\Local\Temp\cc4647b3.s:10117  .debug_loc:000000000000032c .LLST0
C:\Users\Jesper\AppData\Local\Temp\cc4647b3.s:11114  .debug_str:0000000000001108 .LASF559
C:\Users\Jesper\AppData\Local\Temp\cc4647b3.s:10918  .debug_str:0000000000000c72 .LASF561
C:\Users\Jesper\AppData\Local\Temp\cc4647b3.s:11324  .debug_str:0000000000001666 .LASF562
C:\Users\Jesper\AppData\Local\Temp\cc4647b3.s:11170  .debug_str:0000000000001260 .LASF563
C:\Users\Jesper\AppData\Local\Temp\cc4647b3.s:10150  .debug_loc:0000000000000380 .LLST1
C:\Users\Jesper\AppData\Local\Temp\cc4647b3.s:11036  .debug_str:0000000000000f4e .LASF564
C:\Users\Jesper\AppData\Local\Temp\cc4647b3.s:11208  .debug_str:0000000000001382 .LASF565
C:\Users\Jesper\AppData\Local\Temp\cc4647b3.s:10165  .debug_loc:00000000000003a4 .LLST2
C:\Users\Jesper\AppData\Local\Temp\cc4647b3.s:10748  .debug_str:000000000000089a .LASF566
C:\Users\Jesper\AppData\Local\Temp\cc4647b3.s:10195  .debug_loc:00000000000003f1 .LLST3
C:\Users\Jesper\AppData\Local\Temp\cc4647b3.s:11394  .debug_str:00000000000017c0 .LASF567
C:\Users\Jesper\AppData\Local\Temp\cc4647b3.s:10229  .debug_loc:0000000000000449 .LLST4
C:\Users\Jesper\AppData\Local\Temp\cc4647b3.s:11196  .debug_str:00000000000012e1 .LASF568
C:\Users\Jesper\AppData\Local\Temp\cc4647b3.s:10261  .debug_loc:0000000000000498 .LLST5
C:\Users\Jesper\AppData\Local\Temp\cc4647b3.s:10934  .debug_str:0000000000000cee .LASF569
C:\Users\Jesper\AppData\Local\Temp\cc4647b3.s:10269  .debug_loc:00000000000004ac .LLST6
C:\Users\Jesper\AppData\Local\Temp\cc4647b3.s:292    .text.startup.main:000000000000020e .LVL30
C:\Users\Jesper\AppData\Local\Temp\cc4647b3.s:300    .text.startup.main:0000000000000222 .LVL32
C:\Users\Jesper\AppData\Local\Temp\cc4647b3.s:305    .text.startup.main:0000000000000232 .LVL33
C:\Users\Jesper\AppData\Local\Temp\cc4647b3.s:312    .text.startup.main:000000000000023e .LVL35
C:\Users\Jesper\AppData\Local\Temp\cc4647b3.s:315    .text.startup.main:0000000000000246 .LVL36
C:\Users\Jesper\AppData\Local\Temp\cc4647b3.s:318    .text.startup.main:000000000000024e .LVL37
C:\Users\Jesper\AppData\Local\Temp\cc4647b3.s:485    .text.startup.main:000000000000038a .LVL53
C:\Users\Jesper\AppData\Local\Temp\cc4647b3.s:496    .text.startup.main:0000000000000396 .LVL55
C:\Users\Jesper\AppData\Local\Temp\cc4647b3.s:506    .text.startup.main:00000000000003ae .LVL56
C:\Users\Jesper\AppData\Local\Temp\cc4647b3.s:510    .text.startup.main:00000000000003b8 .LVL57
C:\Users\Jesper\AppData\Local\Temp\cc4647b3.s:516    .text.startup.main:00000000000003c4 .LVL58
C:\Users\Jesper\AppData\Local\Temp\cc4647b3.s:522    .text.startup.main:00000000000003d2 .LVL59
C:\Users\Jesper\AppData\Local\Temp\cc4647b3.s:528    .text.startup.main:00000000000003e2 .LVL60
C:\Users\Jesper\AppData\Local\Temp\cc4647b3.s:532    .text.startup.main:00000000000003ec .LVL61
C:\Users\Jesper\AppData\Local\Temp\cc4647b3.s:538    .text.startup.main:00000000000003f6 .LVL63
C:\Users\Jesper\AppData\Local\Temp\cc4647b3.s:254    .text.startup.main:00000000000001ca .LVL25
GAS LISTING C:\Users\Jesper\AppData\Local\Temp\cc4647b3.s 			page 58


C:\Users\Jesper\AppData\Local\Temp\cc4647b3.s:259    .text.startup.main:00000000000001d8 .LVL26
C:\Users\Jesper\AppData\Local\Temp\cc4647b3.s:263    .text.startup.main:00000000000001e2 .LVL27
C:\Users\Jesper\AppData\Local\Temp\cc4647b3.s:268    .text.startup.main:00000000000001f0 .LVL28
C:\Users\Jesper\AppData\Local\Temp\cc4647b3.s:65     .text.startup.main:0000000000000044 .LVL1
C:\Users\Jesper\AppData\Local\Temp\cc4647b3.s:69     .text.startup.main:000000000000004e .LVL2
C:\Users\Jesper\AppData\Local\Temp\cc4647b3.s:74     .text.startup.main:0000000000000056 .LVL3
C:\Users\Jesper\AppData\Local\Temp\cc4647b3.s:81     .text.startup.main:000000000000006a .LVL4
C:\Users\Jesper\AppData\Local\Temp\cc4647b3.s:84     .text.startup.main:0000000000000072 .LVL5
C:\Users\Jesper\AppData\Local\Temp\cc4647b3.s:87     .text.startup.main:000000000000007a .LVL6
C:\Users\Jesper\AppData\Local\Temp\cc4647b3.s:91     .text.startup.main:0000000000000084 .LVL7
C:\Users\Jesper\AppData\Local\Temp\cc4647b3.s:108    .text.startup.main:000000000000009c .LVL8
C:\Users\Jesper\AppData\Local\Temp\cc4647b3.s:112    .text.startup.main:00000000000000a8 .LVL9
C:\Users\Jesper\AppData\Local\Temp\cc4647b3.s:129    .text.startup.main:00000000000000ce .LVL10
C:\Users\Jesper\AppData\Local\Temp\cc4647b3.s:135    .text.startup.main:00000000000000dc .LVL11
C:\Users\Jesper\AppData\Local\Temp\cc4647b3.s:142    .text.startup.main:00000000000000ec .LVL12
C:\Users\Jesper\AppData\Local\Temp\cc4647b3.s:145    .text.startup.main:00000000000000f4 .LVL13
C:\Users\Jesper\AppData\Local\Temp\cc4647b3.s:149    .text.startup.main:0000000000000100 .LVL14
C:\Users\Jesper\AppData\Local\Temp\cc4647b3.s:153    .text.startup.main:000000000000010c .LVL15
C:\Users\Jesper\AppData\Local\Temp\cc4647b3.s:160    .text.startup.main:0000000000000118 .LVL16
C:\Users\Jesper\AppData\Local\Temp\cc4647b3.s:168    .text.startup.main:000000000000012c .LVL17
C:\Users\Jesper\AppData\Local\Temp\cc4647b3.s:178    .text.startup.main:000000000000013c .LVL18
C:\Users\Jesper\AppData\Local\Temp\cc4647b3.s:190    .text.startup.main:0000000000000156 .LVL19
C:\Users\Jesper\AppData\Local\Temp\cc4647b3.s:197    .text.startup.main:0000000000000166 .LVL20
C:\Users\Jesper\AppData\Local\Temp\cc4647b3.s:202    .text.startup.main:0000000000000170 .LVL21
C:\Users\Jesper\AppData\Local\Temp\cc4647b3.s:206    .text.startup.main:000000000000017a .LVL22
C:\Users\Jesper\AppData\Local\Temp\cc4647b3.s:210    .text.startup.main:0000000000000186 .LVL23
C:\Users\Jesper\AppData\Local\Temp\cc4647b3.s:355    .text.startup.main:0000000000000298 .LVL39
C:\Users\Jesper\AppData\Local\Temp\cc4647b3.s:360    .text.startup.main:00000000000002a6 .LVL40
C:\Users\Jesper\AppData\Local\Temp\cc4647b3.s:396    .text.startup.main:00000000000002ec .LVL42
C:\Users\Jesper\AppData\Local\Temp\cc4647b3.s:407    .text.startup.main:0000000000000308 .LVL43
C:\Users\Jesper\AppData\Local\Temp\cc4647b3.s:412    .text.startup.main:0000000000000318 .LVL44
C:\Users\Jesper\AppData\Local\Temp\cc4647b3.s:416    .text.startup.main:0000000000000322 .LVL45
C:\Users\Jesper\AppData\Local\Temp\cc4647b3.s:462    .text.startup.main:000000000000036e .LVL49
C:\Users\Jesper\AppData\Local\Temp\cc4647b3.s:552    .text.startup.main:0000000000000406 .LVL65
C:\Users\Jesper\AppData\Local\Temp\cc4647b3.s:558    .text.startup.main:0000000000000416 .LVL66
C:\Users\Jesper\AppData\Local\Temp\cc4647b3.s:562    .text.startup.main:0000000000000420 .LVL67
C:\Users\Jesper\AppData\Local\Temp\cc4647b3.s:11152  .debug_str:000000000000120b .LASF570
C:\Users\Jesper\AppData\Local\Temp\cc4647b3.s:10972  .debug_str:0000000000000dd4 .LASF571
C:\Users\Jesper\AppData\Local\Temp\cc4647b3.s:10646  .debug_str:0000000000000645 .LASF572
C:\Users\Jesper\AppData\Local\Temp\cc4647b3.s:11598  .debug_str:0000000000001c3e .LASF573
C:\Users\Jesper\AppData\Local\Temp\cc4647b3.s:11210  .debug_str:0000000000001388 .LASF574
C:\Users\Jesper\AppData\Local\Temp\cc4647b3.s:11346  .debug_str:00000000000016db .LASF575
C:\Users\Jesper\AppData\Local\Temp\cc4647b3.s:10910  .debug_str:0000000000000c46 .LASF576
C:\Users\Jesper\AppData\Local\Temp\cc4647b3.s:10884  .debug_str:0000000000000b9c .LASF577
C:\Users\Jesper\AppData\Local\Temp\cc4647b3.s:10406  .debug_str:0000000000000047 .LASF578
C:\Users\Jesper\AppData\Local\Temp\cc4647b3.s:11230  .debug_str:000000000000142e .LASF579
C:\Users\Jesper\AppData\Local\Temp\cc4647b3.s:10846  .debug_str:0000000000000ace .LASF580
C:\Users\Jesper\AppData\Local\Temp\cc4647b3.s:11446  .debug_str:00000000000018d9 .LASF581
C:\Users\Jesper\AppData\Local\Temp\cc4647b3.s:11262  .debug_str:00000000000014fc .LASF582
C:\Users\Jesper\AppData\Local\Temp\cc4647b3.s:11022  .debug_str:0000000000000eec .LASF583
C:\Users\Jesper\AppData\Local\Temp\cc4647b3.s:11116  .debug_str:000000000000110e .LASF584
C:\Users\Jesper\AppData\Local\Temp\cc4647b3.s:11384  .debug_str:0000000000001791 .LASF585
C:\Users\Jesper\AppData\Local\Temp\cc4647b3.s:10950  .debug_str:0000000000000d52 .LASF586
C:\Users\Jesper\AppData\Local\Temp\cc4647b3.s:11390  .debug_str:00000000000017a7 .LASF587
C:\Users\Jesper\AppData\Local\Temp\cc4647b3.s:10960  .debug_str:0000000000000d97 .LASF588
C:\Users\Jesper\AppData\Local\Temp\cc4647b3.s:11432  .debug_str:000000000000188c .LASF608
C:\Users\Jesper\AppData\Local\Temp\cc4647b3.s:10618  .debug_str:000000000000058d .LASF610
GAS LISTING C:\Users\Jesper\AppData\Local\Temp\cc4647b3.s 			page 59


C:\Users\Jesper\AppData\Local\Temp\cc4647b3.s:10698  .debug_str:0000000000000783 .LASF589
C:\Users\Jesper\AppData\Local\Temp\cc4647b3.s:11254  .debug_str:00000000000014cb .LASF590
C:\Users\Jesper\AppData\Local\Temp\cc4647b3.s:11502  .debug_str:0000000000001a23 .LASF591
C:\Users\Jesper\AppData\Local\Temp\cc4647b3.s:10750  .debug_str:00000000000008a0 .LASF592
C:\Users\Jesper\AppData\Local\Temp\cc4647b3.s:11568  .debug_str:0000000000001b9d .LASF593
C:\Users\Jesper\AppData\Local\Temp\cc4647b3.s:11430  .debug_str:000000000000187d .LASF594
C:\Users\Jesper\AppData\Local\Temp\cc4647b3.s:11010  .debug_str:0000000000000ea7 .LASF595
C:\Users\Jesper\AppData\Local\Temp\cc4647b3.s:10854  .debug_str:0000000000000b0f .LASF596
C:\Users\Jesper\AppData\Local\Temp\cc4647b3.s:10434  .debug_str:00000000000000fb .LASF597
C:\Users\Jesper\AppData\Local\Temp\cc4647b3.s:11146  .debug_str:00000000000011ca .LASF598
C:\Users\Jesper\AppData\Local\Temp\cc4647b3.s:10824  .debug_str:0000000000000a51 .LASF599
C:\Users\Jesper\AppData\Local\Temp\cc4647b3.s:11624  .debug_str:0000000000001cd5 .LASF600
C:\Users\Jesper\AppData\Local\Temp\cc4647b3.s:10794  .debug_str:00000000000009aa .LASF601
C:\Users\Jesper\AppData\Local\Temp\cc4647b3.s:10620  .debug_str:000000000000059e .LASF602
C:\Users\Jesper\AppData\Local\Temp\cc4647b3.s:10724  .debug_str:000000000000081a .LASF603
C:\Users\Jesper\AppData\Local\Temp\cc4647b3.s:11318  .debug_str:000000000000163d .LASF604
C:\Users\Jesper\AppData\Local\Temp\cc4647b3.s:10818  .debug_str:0000000000000a26 .LASF605
C:\Users\Jesper\AppData\Local\Temp\cc4647b3.s:10668  .debug_str:00000000000006cd .LASF606
C:\Users\Jesper\AppData\Local\Temp\cc4647b3.s:11316  .debug_str:0000000000001628 .LASF607
C:\Users\Jesper\AppData\Local\Temp\cc4647b3.s:10520  .debug_str:00000000000002f9 .LASF609
C:\Users\Jesper\AppData\Local\Temp\cc4647b3.s:11264  .debug_str:0000000000001513 .LASF611
C:\Users\Jesper\AppData\Local\Temp\cc4647b3.s:11104  .debug_str:00000000000010c7 .LASF612
C:\Users\Jesper\AppData\Local\Temp\cc4647b3.s:11612  .debug_str:0000000000001c91 .LASF613
C:\Users\Jesper\AppData\Local\Temp\cc4647b3.s:11478  .debug_str:000000000000199e .LASF614
C:\Users\Jesper\AppData\Local\Temp\cc4647b3.s:10560  .debug_str:000000000000046a .LASF615
C:\Users\Jesper\AppData\Local\Temp\cc4647b3.s:10998  .debug_str:0000000000000e6c .LASF616
C:\Users\Jesper\AppData\Local\Temp\cc4647b3.s:10834  .debug_str:0000000000000a90 .LASF617
C:\Users\Jesper\AppData\Local\Temp\cc4647b3.s:10830  .debug_str:0000000000000a77 .LASF618
C:\Users\Jesper\AppData\Local\Temp\cc4647b3.s:1277   .text.millis:0000000000000002 .LCFI15
C:\Users\Jesper\AppData\Local\Temp\cc4647b3.s:1324   .text.millis:0000000000000060 .LCFI16
C:\Users\Jesper\AppData\Local\Temp\cc4647b3.s:1291   .text.millis:0000000000000018 .LVL139
C:\Users\Jesper\AppData\Local\Temp\cc4647b3.s:1246   .text.append_newLine:0000000000000000 .LVL136
C:\Users\Jesper\AppData\Local\Temp\cc4647b3.s:1250   .text.append_newLine:0000000000000002 .LVL137
C:\Users\Jesper\AppData\Local\Temp\cc4647b3.s:1198   .text.append_int_to_string:0000000000000002 .LCFI13
C:\Users\Jesper\AppData\Local\Temp\cc4647b3.s:1232   .text.append_int_to_string:000000000000002e .LCFI14
C:\Users\Jesper\AppData\Local\Temp\cc4647b3.s:1194   .text.append_int_to_string:0000000000000000 .LVL131
C:\Users\Jesper\AppData\Local\Temp\cc4647b3.s:1205   .text.append_int_to_string:0000000000000008 .LVL132
C:\Users\Jesper\AppData\Local\Temp\cc4647b3.s:1230   .text.append_int_to_string:000000000000002c .LVL135
C:\Users\Jesper\AppData\Local\Temp\cc4647b3.s:1063   .text.int_to_string:0000000000000000 .LVL111
C:\Users\Jesper\AppData\Local\Temp\cc4647b3.s:1090   .text.int_to_string:000000000000001a .LVL115
C:\Users\Jesper\AppData\Local\Temp\cc4647b3.s:1148   .text.int_to_string:0000000000000062 .LVL124
C:\Users\Jesper\AppData\Local\Temp\cc4647b3.s:1153   .text.int_to_string:0000000000000068 .LVL125
C:\Users\Jesper\AppData\Local\Temp\cc4647b3.s:1176   .text.int_to_string:0000000000000082 .LVL128
C:\Users\Jesper\AppData\Local\Temp\cc4647b3.s:1079   .text.int_to_string:0000000000000012 .LVL113
C:\Users\Jesper\AppData\Local\Temp\cc4647b3.s:1101   .text.int_to_string:000000000000002a .LVL116
C:\Users\Jesper\AppData\Local\Temp\cc4647b3.s:1139   .text.int_to_string:0000000000000056 .LVL122
C:\Users\Jesper\AppData\Local\Temp\cc4647b3.s:1072   .text.int_to_string:0000000000000006 .LVL112
C:\Users\Jesper\AppData\Local\Temp\cc4647b3.s:1082   .text.int_to_string:0000000000000014 .LVL114
C:\Users\Jesper\AppData\Local\Temp\cc4647b3.s:1117   .text.int_to_string:000000000000003e .LVL118
C:\Users\Jesper\AppData\Local\Temp\cc4647b3.s:1123   .text.int_to_string:0000000000000048 .LVL119
C:\Users\Jesper\AppData\Local\Temp\cc4647b3.s:1161   .text.int_to_string:000000000000006c .LVL126
C:\Users\Jesper\AppData\Local\Temp\cc4647b3.s:1166   .text.int_to_string:0000000000000074 .LVL127
C:\Users\Jesper\AppData\Local\Temp\cc4647b3.s:1178   .text.int_to_string:0000000000000084 .LVL129
C:\Users\Jesper\AppData\Local\Temp\cc4647b3.s:1142   .text.int_to_string:000000000000005a .LVL123
C:\Users\Jesper\AppData\Local\Temp\cc4647b3.s:1181   .text.int_to_string:0000000000000086 .LVL130
C:\Users\Jesper\AppData\Local\Temp\cc4647b3.s:1109   .text.int_to_string:0000000000000036 .LVL117
C:\Users\Jesper\AppData\Local\Temp\cc4647b3.s:930    .text.timer_interrupt_config:0000000000000002 .LCFI11
GAS LISTING C:\Users\Jesper\AppData\Local\Temp\cc4647b3.s 			page 60


C:\Users\Jesper\AppData\Local\Temp\cc4647b3.s:1049   .text.timer_interrupt_config:00000000000000f8 .LCFI12
C:\Users\Jesper\AppData\Local\Temp\cc4647b3.s:966    .text.timer_interrupt_config:000000000000004a .LVL101
C:\Users\Jesper\AppData\Local\Temp\cc4647b3.s:874    .text.init_mpu:0000000000000002 .LCFI9
C:\Users\Jesper\AppData\Local\Temp\cc4647b3.s:909    .text.init_mpu:000000000000004c .LCFI10
C:\Users\Jesper\AppData\Local\Temp\cc4647b3.s:851    .text.led_on_off_B1:0000000000000000 .LVL89
C:\Users\Jesper\AppData\Local\Temp\cc4647b3.s:855    .text.led_on_off_B1:0000000000000006 .LVL90
C:\Users\Jesper\AppData\Local\Temp\cc4647b3.s:739    .text.ledInit:0000000000000002 .LCFI7
C:\Users\Jesper\AppData\Local\Temp\cc4647b3.s:763    .text.ledInit:0000000000000022 .LCFI8
C:\Users\Jesper\AppData\Local\Temp\cc4647b3.s:582    .text.TIMER1_IRQHandler:0000000000000002 .LCFI5
C:\Users\Jesper\AppData\Local\Temp\cc4647b3.s:722    .text.TIMER1_IRQHandler:0000000000000118 .LCFI6
C:\Users\Jesper\AppData\Local\Temp\cc4647b3.s:32     .text.startup.main:0000000000000004 .LCFI0
C:\Users\Jesper\AppData\Local\Temp\cc4647b3.s:48     .text.startup.main:000000000000003c .LCFI1
C:\Users\Jesper\AppData\Local\Temp\cc4647b3.s:419    .text.startup.main:0000000000000326 .LCFI2
C:\Users\Jesper\AppData\Local\Temp\cc4647b3.s:452    .text.startup.main:0000000000000360 .LCFI3
C:\Users\Jesper\AppData\Local\Temp\cc4647b3.s:457    .text.startup.main:0000000000000362 .LCFI4
C:\Users\Jesper\AppData\Local\Temp\cc4647b3.s:455    .text.startup.main:0000000000000362 .LVL48
C:\Users\Jesper\AppData\Local\Temp\cc4647b3.s:464    .text.startup.main:0000000000000370 .LVL50
C:\Users\Jesper\AppData\Local\Temp\cc4647b3.s:247    .text.startup.main:00000000000001bc .LVL24
C:\Users\Jesper\AppData\Local\Temp\cc4647b3.s:381    .text.startup.main:00000000000002d4 .LVL41
C:\Users\Jesper\AppData\Local\Temp\cc4647b3.s:479    .text.startup.main:000000000000037e .LVL52
C:\Users\Jesper\AppData\Local\Temp\cc4647b3.s:491    .text.startup.main:000000000000038e .LVL54
C:\Users\Jesper\AppData\Local\Temp\cc4647b3.s:534    .text.startup.main:00000000000003ee .LVL62
C:\Users\Jesper\AppData\Local\Temp\cc4647b3.s:545    .text.startup.main:00000000000003fc .LVL64
C:\Users\Jesper\AppData\Local\Temp\cc4647b3.s:442    .text.startup.main:000000000000034c .LVL47
C:\Users\Jesper\AppData\Local\Temp\cc4647b3.s:282    .text.startup.main:00000000000001f6 .LVL29
C:\Users\Jesper\AppData\Local\Temp\cc4647b3.s:309    .text.startup.main:0000000000000236 .LVL34
C:\Users\Jesper\AppData\Local\Temp\cc4647b3.s:334    .text.startup.main:000000000000026a .LVL38
C:\Users\Jesper\AppData\Local\Temp\cc4647b3.s:295    .text.startup.main:0000000000000210 .LVL31
C:\Users\Jesper\AppData\Local\Temp\cc4647b3.s:437    .text.startup.main:0000000000000344 .LVL46
C:\Users\Jesper\AppData\Local\Temp\cc4647b3.s:1451   .debug_info:0000000000000000 .Ldebug_info0
C:\Users\Jesper\AppData\Local\Temp\cc4647b3.s:213    .text.startup.main:0000000000000186 .LBB2
C:\Users\Jesper\AppData\Local\Temp\cc4647b3.s:233    .text.startup.main:00000000000001aa .LBE2
C:\Users\Jesper\AppData\Local\Temp\cc4647b3.s:241    .text.startup.main:00000000000001b6 .LBB9
C:\Users\Jesper\AppData\Local\Temp\cc4647b3.s:351    .text.startup.main:000000000000028c .LBE9
C:\Users\Jesper\AppData\Local\Temp\cc4647b3.s:466    .text.startup.main:0000000000000370 .LBB10
C:\Users\Jesper\AppData\Local\Temp\cc4647b3.s:548    .text.startup.main:00000000000003fc .LBE10
C:\Users\Jesper\AppData\Local\Temp\cc4647b3.s:215    .text.startup.main:0000000000000186 .LBB3
C:\Users\Jesper\AppData\Local\Temp\cc4647b3.s:232    .text.startup.main:00000000000001aa .LBE3
C:\Users\Jesper\AppData\Local\Temp\cc4647b3.s:242    .text.startup.main:00000000000001b6 .LBB4
C:\Users\Jesper\AppData\Local\Temp\cc4647b3.s:249    .text.startup.main:00000000000001bc .LBE4
C:\Users\Jesper\AppData\Local\Temp\cc4647b3.s:271    .text.startup.main:00000000000001f0 .LBB5
C:\Users\Jesper\AppData\Local\Temp\cc4647b3.s:273    .text.startup.main:00000000000001f0 .LBE5
C:\Users\Jesper\AppData\Local\Temp\cc4647b3.s:276    .text.startup.main:00000000000001f2 .LBB6
C:\Users\Jesper\AppData\Local\Temp\cc4647b3.s:279    .text.startup.main:00000000000001f4 .LBE6
C:\Users\Jesper\AppData\Local\Temp\cc4647b3.s:284    .text.startup.main:00000000000001f6 .LBB7
C:\Users\Jesper\AppData\Local\Temp\cc4647b3.s:345    .text.startup.main:0000000000000280 .LBE7
C:\Users\Jesper\AppData\Local\Temp\cc4647b3.s:467    .text.startup.main:0000000000000370 .LBB8
C:\Users\Jesper\AppData\Local\Temp\cc4647b3.s:547    .text.startup.main:00000000000003fc .LBE8

UNDEFINED SYMBOLS
configure_usb_serial
usb_delay_1ms
usb_serial_available
puts
init_q
set_fattime
delay_1ms
GAS LISTING C:\Users\Jesper\AppData\Local\Temp\cc4647b3.s 			page 61


f_mount
rcu_periph_clock_enable
memset
f_sync
f_open
clear_queues
timer_interrupt_disable
printf
fflush
snprintf
enqueue_string
config_clic_irqs
eclic_global_interrupt_enable
empty_string_queue
f_close
queue_str_len
dequeue_string
strlen
f_write
__fixsfsi
timer_interrupt_flag_get
mpu6500_getAccel
strncat
strcat
timer_interrupt_flag_clear
gpio_init
gpio_bit_write
mpu6500_install
eclic_irq_enable
timer_deinit
timer_struct_para_init
SystemCoreClock
timer_init
timer_channel_output_struct_para_init
timer_channel_output_config
timer_channel_output_pulse_value_config
timer_channel_output_mode_config
timer_channel_output_shadow_config
timer_interrupt_enable
timer_enable
fuseStrings
__floatundidf
__muldf3
__floatunsidf
__divdf3
__fixdfsi
get_timer_value
