GAS LISTING C:\Users\Jesper\AppData\Local\Temp\ccTMvnxl.s 			page 1


   1              		.file	"main.c"
   2              		.option nopic
   3              		.attribute arch, "rv32i2p0_m2p0_a2p0_c2p0"
   4              		.attribute unaligned_access, 0
   5              		.attribute stack_align, 16
   6              		.text
   7              	.Ltext0:
   8              		.cfi_sections	.debug_frame
   9              		.comm	dataBuffer,22,4
  10              		.globl	last_Sample_buffer
  11              		.globl	pDatabuffer
  12              		.globl	time_elapsed
  13              		.globl	__udivdi3
  14              		.section	.text.startup.main,"ax",@progbits
  15              		.align	1
  16              		.globl	main
  18              	main:
  19              	.LFB7:
  20              		.file 1 "main.c"
   1:main.c        **** #include "gd32vf103.h"
   2:main.c        **** #include "usb_serial_if.h"
   3:main.c        **** #include "usb_delay.h"
   4:main.c        **** #include <stdlib.h>
   5:main.c        **** #include <string.h>
   6:main.c        **** #include "systick.h"
   7:main.c        **** #include "gd32v_tf_card_if.h"
   8:main.c        **** #include "ff.h"
   9:main.c        **** #include "gd32v_mpu6500_if.h"
  10:main.c        **** #include "dma.h"
  11:main.c        **** #include "mpu6500_registers.h"
  12:main.c        **** #include "mpu6500_driver.h"
  13:main.c        **** #include "queue.h"
  14:main.c        **** #include "tf_card.h"
  15:main.c        **** 
  16:main.c        **** #define BUFFER_SIZE 512
  17:main.c        **** #define DESIRED_FREQUENCY_HZ 50
  18:main.c        **** 
  19:main.c        **** /* FILENAME should be at most 8 chars long and the extension should be at most 3 */
  20:main.c        **** 
  21:main.c        **** volatile int16_t last_Sample_buffer[7] = {0};
  22:main.c        **** 
  23:main.c        **** void ledInit (void);
  24:main.c        **** void led_on_B1();
  25:main.c        **** void led_off_B1();
  26:main.c        **** void led_on_B0();
  27:main.c        **** void led_off_B0();
  28:main.c        **** void timer_interrupt_config();
  29:main.c        **** void init_mpu(void);
  30:main.c        **** int millis(void);
  31:main.c        **** void append_newLine(char *string, int length);
  32:main.c        **** int append_int_to_string(char *string, int integer);
  33:main.c        **** int int_to_string(char *string, int integer);
  34:main.c        **** void formatTime(char *output, int minutes, int seconds, int milliseconds);
  35:main.c        ****          
  36:main.c        **** uint8_t* pDatabuffer = (uint8_t*)&dataBuffer;
  37:main.c        **** uint32_t time_elapsed = 0;
  38:main.c        **** 
GAS LISTING C:\Users\Jesper\AppData\Local\Temp\ccTMvnxl.s 			page 2


  39:main.c        **** int main(void){
  21              		.loc 1 39 15
  22              		.cfi_startproc
  40:main.c        **** 	uint32_t count = 0;
  23              		.loc 1 40 2
  24              	.LVL0:
  41:main.c        ****     char usb_data_buffer[512] = {'\0'};
  25              		.loc 1 41 5
  42:main.c        ****     char usb_read_buf[80] = {'\0'};
  26              		.loc 1 42 5
  43:main.c        **** 
  44:main.c        ****     configure_usb_serial();
  27              		.loc 1 44 5
  39:main.c        **** 	uint32_t count = 0;
  28              		.loc 1 39 15 is_stmt 0
  29 0000 13010181 		addi	sp,sp,-2032
  30              	.LCFI0:
  31              		.cfi_def_cfa_offset 2032
  32 0004 2326117E 		sw	ra,2028(sp)
  33 0008 2324817E 		sw	s0,2024(sp)
  34 000c 2322917E 		sw	s1,2020(sp)
  35 0010 2320217F 		sw	s2,2016(sp)
  36 0014 232E317D 		sw	s3,2012(sp)
  37 0018 232C417D 		sw	s4,2008(sp)
  38 001c 232A517D 		sw	s5,2004(sp)
  39 0020 2328617D 		sw	s6,2000(sp)
  40 0024 2326717D 		sw	s7,1996(sp)
  41 0028 2324817D 		sw	s8,1992(sp)
  42 002c 2322917D 		sw	s9,1988(sp)
  43 0030 13010194 		addi	sp,sp,-1728
  44              	.LCFI1:
  45              		.cfi_def_cfa_offset 3760
  46              		.cfi_offset 1, -4
  47              		.cfi_offset 8, -8
  48              		.cfi_offset 9, -12
  49              		.cfi_offset 18, -16
  50              		.cfi_offset 19, -20
  51              		.cfi_offset 20, -24
  52              		.cfi_offset 21, -28
  53              		.cfi_offset 22, -32
  54              		.cfi_offset 23, -36
  55              		.cfi_offset 24, -40
  56              		.cfi_offset 25, -44
  57              		.loc 1 44 5
  58 0034 97000000 		call	configure_usb_serial
  58      E7800000 
  59              	.LVL1:
  45:main.c        ****     usb_delay_1ms(1);
  60              		.loc 1 45 5 is_stmt 1
  61 003c 0545     		li	a0,1
  62 003e 97000000 		call	usb_delay_1ms
  62      E7800000 
  63              	.LVL2:
  46:main.c        **** 
  47:main.c        ****     while (!usb_serial_available()) {
  64              		.loc 1 47 5
  65              	.L2:
GAS LISTING C:\Users\Jesper\AppData\Local\Temp\ccTMvnxl.s 			page 3


  66              		.loc 1 47 13 is_stmt 0
  67 0046 97000000 		call	usb_serial_available
  67      E7800000 
  68              	.LVL3:
  69              		.loc 1 47 11
  70 004e 6305052A 		beq	a0,zero,.L3
  48:main.c        ****         usb_delay_1ms(100);
  49:main.c        ****     }
  50:main.c        **** 	printf("ready\r\n");
  71              		.loc 1 50 2 is_stmt 1
  72 0052 37050000 		lui	a0,%hi(.LC0)
  73 0056 13050500 		addi	a0,a0,%lo(.LC0)
  74 005a 97000000 		call	puts
  74      E7800000 
  75              	.LVL4:
  51:main.c        **** 
  52:main.c        ****     init_q();
  76              		.loc 1 52 5
  77 0062 97000000 		call	init_q
  77      E7800000 
  78              	.LVL5:
  53:main.c        ****     ledInit();
  79              		.loc 1 53 5
  80 006a 97000000 		call	ledInit
  80      E7800000 
  81              	.LVL6:
  54:main.c        ****     usb_delay_1ms(1);
  82              		.loc 1 54 5
  83 0072 0545     		li	a0,1
  84 0074 97000000 		call	usb_delay_1ms
  84      E7800000 
  85              	.LVL7:
  55:main.c        ****     /* Handle for the mounted filesystem */
  56:main.c        ****     FATFS fs;
  86              		.loc 1 56 5
  57:main.c        **** 
  58:main.c        ****     /* FatFs return code */
  59:main.c        ****     volatile FRESULT fr;
  87              		.loc 1 59 5
  60:main.c        **** 
  61:main.c        ****     /* File handle */
  62:main.c        ****     FIL fil;
  88              		.loc 1 62 5
  63:main.c        **** 
  64:main.c        ****     /* Used for bytes written */
  65:main.c        ****     UINT bw = 0;
  89              		.loc 1 65 5
  66:main.c        ****     
  67:main.c        ****     /* Sets a valid date for when writing to file */
  68:main.c        ****     set_fattime(1980, 1, 1, 0, 0, 0); // 1980 Jan 1st, 00:00:00
  90              		.loc 1 68 5 is_stmt 0
  91 007c 0147     		li	a4,0
  92 007e 8146     		li	a3,0
  93 0080 8147     		li	a5,0
  94 0082 0546     		li	a2,1
  95 0084 8545     		li	a1,1
  96 0086 1305C07B 		li	a0,1980
GAS LISTING C:\Users\Jesper\AppData\Local\Temp\ccTMvnxl.s 			page 4


  65:main.c        ****     
  97              		.loc 1 65 10
  98 008a 02C8     		sw	zero,16(sp)
  99              		.loc 1 68 5 is_stmt 1
 100 008c 97000000 		call	set_fattime
 100      E7800000 
 101              	.LVL8:
  69:main.c        ****     delay_1ms(100);
 102              		.loc 1 69 5
 103 0094 13054006 		li	a0,100
 104 0098 97000000 		call	delay_1ms
 104      E7800000 
 105              	.LVL9:
  70:main.c        **** 
  71:main.c        ****     /* This function "mounts" the SD-card which makes the filesystem available */
  72:main.c        ****     fr = f_mount(&fs, "test", 1); // Mount storage device
 106              		.loc 1 72 5
 107              		.loc 1 72 10 is_stmt 0
 108 00a0 856A     		li	s5,4096
  65:main.c        ****     
 109              		.loc 1 65 10
 110 00a2 FD74     		li	s1,-4096
 111              		.loc 1 72 10
 112 00a4 93870AE8 		addi	a5,s5,-384
 113 00a8 8A97     		add	a5,a5,sp
 114 00aa 1389043D 		addi	s2,s1,976
 115 00ae 3E99     		add	s2,a5,s2
 116 00b0 370A0000 		lui	s4,%hi(.LC1)
 117 00b4 93050A00 		addi	a1,s4,%lo(.LC1)
 118 00b8 0546     		li	a2,1
 119 00ba 4A85     		mv	a0,s2
 120 00bc 97000000 		call	f_mount
 120      E7800000 
 121              	.LVL10:
  73:main.c        ****     f_sync(&fil);
 122              		.loc 1 73 5
 123 00c4 93870AE8 		addi	a5,s5,-384
 124 00c8 8A97     		add	a5,a5,sp
 125 00ca 9389841A 		addi	s3,s1,424
 126 00ce BE99     		add	s3,a5,s3
  72:main.c        ****     f_sync(&fil);
 127              		.loc 1 72 8
 128 00d0 2AC6     		sw	a0,12(sp)
 129              		.loc 1 73 5 is_stmt 1
 130 00d2 4E85     		mv	a0,s3
 131 00d4 97000000 		call	f_sync
 131      E7800000 
 132              	.LVL11:
  74:main.c        **** 
  75:main.c        ****     /* This function opens a file. In this case, we are creating a file which we want to write to *
  76:main.c        ****     
  77:main.c        ****     delay_1ms(400);
 133              		.loc 1 77 5
 134 00dc 13050019 		li	a0,400
 135 00e0 97000000 		call	delay_1ms
 135      E7800000 
 136              	.LVL12:
GAS LISTING C:\Users\Jesper\AppData\Local\Temp\ccTMvnxl.s 			page 5


  78:main.c        **** 	printf("mpu\r\n");
 137              		.loc 1 78 2
 138 00e8 37050000 		lui	a0,%hi(.LC2)
 139 00ec 13050500 		addi	a0,a0,%lo(.LC2)
 140 00f0 97000000 		call	puts
 140      E7800000 
 141              	.LVL13:
  79:main.c        ****     init_mpu();
 142              		.loc 1 79 5
 143 00f8 97000000 		call	init_mpu
 143      E7800000 
 144              	.LVL14:
  80:main.c        **** 	printf("mpu2\r\n");
 145              		.loc 1 80 2
 146 0100 37050000 		lui	a0,%hi(.LC3)
 147 0104 13050500 		addi	a0,a0,%lo(.LC3)
 148 0108 97000000 		call	puts
 148      E7800000 
 149              	.LVL15:
  81:main.c        **** 
  82:main.c        ****     rcu_periph_clock_enable(RCU_DMA0);
 150              		.loc 1 82 5
 151 0110 13050050 		li	a0,1280
 152 0114 97000000 		call	rcu_periph_clock_enable
 152      E7800000 
 153              	.LVL16:
  83:main.c        **** 
  84:main.c        ****     delay_1ms(20);
 154              		.loc 1 84 5
 155 011c 5145     		li	a0,20
  85:main.c        **** 
  86:main.c        ****     char write_to_sd[2560] = {'\0'};
 156              		.loc 1 86 10 is_stmt 0
 157 011e 0564     		li	s0,4096
  84:main.c        **** 
 158              		.loc 1 84 5
 159 0120 97000000 		call	delay_1ms
 159      E7800000 
 160              	.LVL17:
 161              		.loc 1 86 5 is_stmt 1
 162              		.loc 1 86 10 is_stmt 0
 163 0128 130404A0 		addi	s0,s0,-1536
 164 012c 2286     		mv	a2,s0
 165 012e 8145     		li	a1,0
 166 0130 13050148 		addi	a0,sp,1152
 167 0134 97000000 		call	memset
 167      E7800000 
 168              	.LVL18:
  87:main.c        ****     char buf[BUFFER_SIZE] = {'\0'};
 169              		.loc 1 87 5 is_stmt 1
  88:main.c        ****     
  89:main.c        ****     
  90:main.c        ****     int blink = 0;
 170              		.loc 1 90 5
  91:main.c        ****     int onOff = 0;
 171              		.loc 1 91 5
  92:main.c        **** 	
GAS LISTING C:\Users\Jesper\AppData\Local\Temp\ccTMvnxl.s 			page 6


  93:main.c        **** 	fr = f_mount(&fs, "test", 1); // Mount storage device
 172              		.loc 1 93 2
 173              		.loc 1 93 7 is_stmt 0
 174 013c 93050A00 		addi	a1,s4,%lo(.LC1)
 175 0140 0546     		li	a2,1
 176 0142 4A85     		mv	a0,s2
 177 0144 97000000 		call	f_mount
 177      E7800000 
 178              	.LVL19:
 179              		.loc 1 93 5
 180 014c 2AC6     		sw	a0,12(sp)
  94:main.c        **** 	f_sync(&fil);
 181              		.loc 1 94 2 is_stmt 1
  95:main.c        **** 
  96:main.c        **** 	fr = f_open(&fil, "TData.CSV", FA_WRITE | FA_CREATE_ALWAYS);
 182              		.loc 1 96 7 is_stmt 0
 183 014e 370A0000 		lui	s4,%hi(.LANCHOR0)
  94:main.c        **** 	f_sync(&fil);
 184              		.loc 1 94 2
 185 0152 4E85     		mv	a0,s3
 186 0154 97000000 		call	f_sync
 186      E7800000 
 187              	.LVL20:
 188              		.loc 1 96 2 is_stmt 1
 189              		.loc 1 96 7 is_stmt 0
 190 015c 13090A00 		addi	s2,s4,%lo(.LANCHOR0)
 191 0160 93050902 		addi	a1,s2,32
 192 0164 2946     		li	a2,10
 193 0166 4E85     		mv	a0,s3
 194 0168 97000000 		call	f_open
 194      E7800000 
 195              	.LVL21:
 196              		.loc 1 96 5
 197 0170 2AC6     		sw	a0,12(sp)
  97:main.c        **** 	clear_queues();
 198              		.loc 1 97 2 is_stmt 1
 199 0172 97000000 		call	clear_queues
 199      E7800000 
 200              	.LVL22:
  98:main.c        **** 	/* Write the header to the file */
  99:main.c        **** 	char header[] = "X-acc;Y-acc;Z-acc\n";
 201              		.loc 1 99 2
 202              		.loc 1 99 7 is_stmt 0
 203 017a 9305C902 		addi	a1,s2,44
 204 017e 4D46     		li	a2,19
 205 0180 4808     		addi	a0,sp,20
 206 0182 97000000 		call	memcpy
 206      E7800000 
 207              	.LVL23:
 100:main.c        **** 	//clear queue
 101:main.c        **** 	enqueue_string(header);
 208              		.loc 1 101 2 is_stmt 1
 209 018a 93870AE8 		addi	a5,s5,-384
 210 018e 8A97     		add	a5,a5,sp
 211 0190 13854419 		addi	a0,s1,404
 212 0194 3E95     		add	a0,a5,a0
 213 0196 97000000 		call	enqueue_string
GAS LISTING C:\Users\Jesper\AppData\Local\Temp\ccTMvnxl.s 			page 7


 213      E7800000 
 214              	.LVL24:
 102:main.c        **** 	
 103:main.c        **** 	//START IMU DMA
 104:main.c        **** 	//i2c_dma_master_read_register(I2C0, MPU6500_ADDR, MPU6500_ACCEL_XOUT_H);
 105:main.c        **** 	//ENABLE interrupts for data collection
 106:main.c        **** 	timer_interrupt_config();
 215              		.loc 1 106 2
 216 019e 97000000 		call	timer_interrupt_config
 216      E7800000 
 217              	.LVL25:
 107:main.c        **** 	config_clic_irqs();
 218              		.loc 1 107 2
 219 01a6 97000000 		call	config_clic_irqs
 219      E7800000 
 220              	.LVL26:
 108:main.c        **** 	eclic_global_interrupt_enable();  
 221              		.loc 1 108 2
 222 01ae 97000000 		call	eclic_global_interrupt_enable
 222      E7800000 
 223              	.LVL27:
 109:main.c        **** 	printf("running\r\n");
 224              		.loc 1 109 2
 225 01b6 13050904 		addi	a0,s2,64
 226 01ba 97000000 		call	puts
 226      E7800000 
 227              	.LVL28:
 110:main.c        ****     uint64_t start_time = millis();
 228              		.loc 1 110 5
 229              		.loc 1 110 27 is_stmt 0
 230 01c2 97000000 		call	millis
 230      E7800000 
 231              	.LVL29:
 101:main.c        **** 	
 232              		.loc 1 101 2
 233 01ca D68C     		mv	s9,s5
 111:main.c        ****     while(time_elapsed < 10000){
 112:main.c        **** 		blink++;
 113:main.c        **** 		if (blink == 1000000){
 114:main.c        **** 			blink = 0;
 115:main.c        **** 			if(onOff){
 116:main.c        **** 				led_on_B0();
 117:main.c        **** 				onOff = 0;
 118:main.c        **** 			}else{
 119:main.c        **** 				led_off_B0();
 120:main.c        **** 				onOff = 1;
 121:main.c        **** 			}
 122:main.c        **** 		}
 123:main.c        **** 		
 124:main.c        **** 		if(queue_str_len() > 5){ //Behövs högre hastighet så kan vi öka denna 5:an
 125:main.c        **** 			memset(write_to_sd, '\0', sizeof(write_to_sd));
 234              		.loc 1 125 4
 235 01cc 13870CE8 		addi	a4,s9,-384
 236 01d0 0A97     		add	a4,a4,sp
 126:main.c        **** 			//printf("x=%d, y=%d, z=%d\r\n", last_Sample_buffer[0],last_Sample_buffer[1],last_Sample_buffer[
 127:main.c        **** 			fflush(0);
 128:main.c        **** 			if (dequeue_string(write_to_sd, 5)) { //Behövs högre hastighet så kan vi öka denna 5:an
GAS LISTING C:\Users\Jesper\AppData\Local\Temp\ccTMvnxl.s 			page 8


 129:main.c        **** 				f_write(&fil, write_to_sd, strlen(write_to_sd), &bw);
 237              		.loc 1 129 5
 238 01d2 93840419 		addi	s1,s1,400
 110:main.c        ****     while(time_elapsed < 10000){
 239              		.loc 1 110 27
 240 01d6 2A8B     		mv	s6,a0
 110:main.c        ****     while(time_elapsed < 10000){
 241              		.loc 1 110 14
 242 01d8 935AF541 		srai	s5,a0,31
 243              	.LVL30:
 111:main.c        ****     while(time_elapsed < 10000){
 244              		.loc 1 111 5 is_stmt 1
  91:main.c        **** 	
 245              		.loc 1 91 9 is_stmt 0
 246 01dc 814B     		li	s7,0
  90:main.c        ****     int onOff = 0;
 247              		.loc 1 90 9
 248 01de 0149     		li	s2,0
 249 01e0 130A0A00 		addi	s4,s4,%lo(.LANCHOR0)
 111:main.c        **** 		blink++;
 250              		.loc 1 111 24
 251 01e4 370C0000 		lui	s8,%hi(.LANCHOR1)
 125:main.c        **** 			//printf("x=%d, y=%d, z=%d\r\n", last_Sample_buffer[0],last_Sample_buffer[1],last_Sample_buffer[
 252              		.loc 1 125 4
 253 01e8 33048740 		sub	s0,a4,s0
 254              		.loc 1 129 5
 255 01ec BA94     		add	s1,a4,s1
 256              	.LVL31:
 257              	.L4:
 111:main.c        **** 		blink++;
 258              		.loc 1 111 10
 259 01ee 03270C00 		lw	a4,%lo(.LANCHOR1)(s8)
 260 01f2 8967     		li	a5,8192
 261 01f4 9387F770 		addi	a5,a5,1807
 262 01f8 63F7E710 		bleu	a4,a5,.L10
 130:main.c        **** 				f_sync(&fil);
 131:main.c        **** 			}
 132:main.c        **** 		}
 133:main.c        **** 
 134:main.c        **** 	}
 135:main.c        ****     uint64_t end_time = millis();
 263              		.loc 1 135 5 is_stmt 1
 264              		.loc 1 135 25 is_stmt 0
 265 01fc 97000000 		call	millis
 265      E7800000 
 266              	.LVL32:
 267 0204 2A84     		mv	s0,a0
 268              	.LVL33:
 136:main.c        **** 	printf("breaking\r\n");
 269              		.loc 1 136 2 is_stmt 1
 270 0206 1305CA04 		addi	a0,s4,76
 271 020a 97000000 		call	puts
 271      E7800000 
 272              	.LVL34:
 137:main.c        ****     printf("finished in %d (s)\r\n", ((end_time - start_time)/10));
 273              		.loc 1 137 5
 135:main.c        **** 	printf("breaking\r\n");
GAS LISTING C:\Users\Jesper\AppData\Local\Temp\ccTMvnxl.s 			page 9


 274              		.loc 1 135 14 is_stmt 0
 275 0212 9355F441 		srai	a1,s0,31
 276              		.loc 1 137 49
 277 0216 33056441 		sub	a0,s0,s6
 278 021a 3334A400 		sgtu	s0,a0,s0
 279              	.LVL35:
 280 021e B3855541 		sub	a1,a1,s5
 281              		.loc 1 137 5
 282 0222 2946     		li	a2,10
 283 0224 8146     		li	a3,0
 284 0226 818D     		sub	a1,a1,s0
 285 0228 97000000 		call	__udivdi3
 285      E7800000 
 286              	.LVL36:
 287 0230 AE86     		mv	a3,a1
 288 0232 2A86     		mv	a2,a0
 289 0234 13058A05 		addi	a0,s4,88
 290 0238 97000000 		call	printf
 290      E7800000 
 291              	.LVL37:
 138:main.c        **** 	timer_interrupt_disable(TIMER1, TIMER_INT_CH0);
 292              		.loc 1 138 2 is_stmt 1
 293 0240 8945     		li	a1,2
 294 0242 37050040 		li	a0,1073741824
 295 0246 97000000 		call	timer_interrupt_disable
 295      E7800000 
 296              	.LVL38:
 139:main.c        **** 	write_to_sd[0] = '\0';
 297              		.loc 1 139 2
 298              		.loc 1 139 17 is_stmt 0
 299 024e 0567     		li	a4,4096
 300 0250 930607E8 		addi	a3,a4,-384
 301 0254 8A96     		add	a3,a3,sp
 302 0256 FD77     		li	a5,-4096
 303 0258 B697     		add	a5,a3,a5
 140:main.c        **** 	while(empty_string_queue(write_to_sd, 5)){
 304              		.loc 1 140 8
 305 025a 7D74     		li	s0,-4096
 306 025c 930607E8 		addi	a3,a4,-384
 307 0260 8A96     		add	a3,a3,sp
 308 0262 13090460 		addi	s2,s0,1536
 309              	.LVL39:
 310 0266 3699     		add	s2,a3,s2
 141:main.c        **** 		f_write(&fil, write_to_sd, strlen(write_to_sd), &bw); // testa byt strlen till buf_size för bät
 311              		.loc 1 141 3
 312 0268 930607E8 		addi	a3,a4,-384
 313 026c 8A96     		add	a3,a3,sp
 314 026e 130A0419 		addi	s4,s0,400
 315 0272 9309841A 		addi	s3,s0,424
 139:main.c        **** 	write_to_sd[0] = '\0';
 316              		.loc 1 139 17
 317 0276 23800760 		sb	zero,1536(a5)
 140:main.c        **** 	while(empty_string_queue(write_to_sd, 5)){
 318              		.loc 1 140 2 is_stmt 1
 319              		.loc 1 141 3 is_stmt 0
 320 027a 369A     		add	s4,a3,s4
 321 027c B699     		add	s3,a3,s3
GAS LISTING C:\Users\Jesper\AppData\Local\Temp\ccTMvnxl.s 			page 10


 142:main.c        **** 		f_sync(&fil);
 143:main.c        **** 		write_to_sd[0] = '\0';
 322              		.loc 1 143 18
 323 027e BE84     		mv	s1,a5
 324              	.L11:
 140:main.c        **** 		f_write(&fil, write_to_sd, strlen(write_to_sd), &bw); // testa byt strlen till buf_size för bät
 325              		.loc 1 140 8
 326 0280 9545     		li	a1,5
 327 0282 4A85     		mv	a0,s2
 328 0284 97000000 		call	empty_string_queue
 328      E7800000 
 329              	.LVL40:
 140:main.c        **** 		f_write(&fil, write_to_sd, strlen(write_to_sd), &bw); // testa byt strlen till buf_size för bät
 330              		.loc 1 140 7
 331 028c 63130510 		bne	a0,zero,.L12
 144:main.c        **** 	}    
 145:main.c        **** 
 146:main.c        **** 	f_close(&fil);
 332              		.loc 1 146 2 is_stmt 1
 333 0290 8567     		li	a5,4096
 334 0292 938707E8 		addi	a5,a5,-384
 335 0296 8A97     		add	a5,a5,sp
 336 0298 1305841A 		addi	a0,s0,424
 337 029c 3E95     		add	a0,a5,a0
 338 029e 97000000 		call	f_close
 338      E7800000 
 339              	.LVL41:
 147:main.c        **** 	printf("done\r\n");
 340              		.loc 1 147 2
 341 02a6 37050000 		lui	a0,%hi(.LC9)
 342 02aa 13050500 		addi	a0,a0,%lo(.LC9)
 343 02ae 97000000 		call	puts
 343      E7800000 
 344              	.LVL42:
 148:main.c        **** 	fflush(0);
 345              		.loc 1 148 2
 346 02b6 0145     		li	a0,0
 347 02b8 97000000 		call	fflush
 347      E7800000 
 348              	.LVL43:
 149:main.c        **** }
 349              		.loc 1 149 1 is_stmt 0
 350 02c0 1301016C 		addi	sp,sp,1728
 351              	.LCFI2:
 352              		.cfi_remember_state
 353              		.cfi_def_cfa_offset 2032
 354 02c4 8320C17E 		lw	ra,2028(sp)
 355              		.cfi_restore 1
 356 02c8 0145     		li	a0,0
 357 02ca 0324817E 		lw	s0,2024(sp)
 358              		.cfi_restore 8
 359 02ce 8324417E 		lw	s1,2020(sp)
 360              		.cfi_restore 9
 361 02d2 0329017E 		lw	s2,2016(sp)
 362              		.cfi_restore 18
 363 02d6 8329C17D 		lw	s3,2012(sp)
 364              		.cfi_restore 19
GAS LISTING C:\Users\Jesper\AppData\Local\Temp\ccTMvnxl.s 			page 11


 365 02da 032A817D 		lw	s4,2008(sp)
 366              		.cfi_restore 20
 367 02de 832A417D 		lw	s5,2004(sp)
 368              		.cfi_restore 21
 369              	.LVL44:
 370 02e2 032B017D 		lw	s6,2000(sp)
 371              		.cfi_restore 22
 372              	.LVL45:
 373 02e6 832BC17C 		lw	s7,1996(sp)
 374              		.cfi_restore 23
 375              	.LVL46:
 376 02ea 032C817C 		lw	s8,1992(sp)
 377              		.cfi_restore 24
 378 02ee 832C417C 		lw	s9,1988(sp)
 379              		.cfi_restore 25
 380 02f2 1301017F 		addi	sp,sp,2032
 381              	.LCFI3:
 382              		.cfi_def_cfa_offset 0
 383 02f6 8280     		jr	ra
 384              	.L3:
 385              	.LCFI4:
 386              		.cfi_restore_state
  48:main.c        ****     }
 387              		.loc 1 48 9 is_stmt 1
 388 02f8 13054006 		li	a0,100
 389 02fc 97000000 		call	usb_delay_1ms
 389      E7800000 
 390              	.LVL47:
 391 0304 89B3     		j	.L2
 392              	.LVL48:
 393              	.L10:
 112:main.c        **** 		if (blink == 1000000){
 394              		.loc 1 112 3
 113:main.c        **** 			blink = 0;
 395              		.loc 1 113 6 is_stmt 0
 396 0306 B7470F00 		li	a5,999424
 112:main.c        **** 		if (blink == 1000000){
 397              		.loc 1 112 8
 398 030a 0509     		addi	s2,s2,1
 399              	.LVL49:
 113:main.c        **** 			blink = 0;
 400              		.loc 1 113 3 is_stmt 1
 113:main.c        **** 			blink = 0;
 401              		.loc 1 113 6 is_stmt 0
 402 030c 93870724 		addi	a5,a5,576
 403 0310 631AF900 		bne	s2,a5,.L5
 114:main.c        **** 			if(onOff){
 404              		.loc 1 114 4 is_stmt 1
 405              	.LVL50:
 115:main.c        **** 				led_on_B0();
 406              		.loc 1 115 4
 115:main.c        **** 				led_on_B0();
 407              		.loc 1 115 6 is_stmt 0
 408 0314 63880B06 		beq	s7,zero,.L6
 116:main.c        **** 				onOff = 0;
 409              		.loc 1 116 5 is_stmt 1
 410 0318 97000000 		call	led_on_B0
GAS LISTING C:\Users\Jesper\AppData\Local\Temp\ccTMvnxl.s 			page 12


 410      E7800000 
 411              	.LVL51:
 117:main.c        **** 			}else{
 412              		.loc 1 117 5
 117:main.c        **** 			}else{
 413              		.loc 1 117 11 is_stmt 0
 414 0320 814B     		li	s7,0
 114:main.c        **** 			if(onOff){
 415              		.loc 1 114 10
 416 0322 0149     		li	s2,0
 417              	.LVL52:
 418              	.L5:
 124:main.c        **** 			memset(write_to_sd, '\0', sizeof(write_to_sd));
 419              		.loc 1 124 3 is_stmt 1
 124:main.c        **** 			memset(write_to_sd, '\0', sizeof(write_to_sd));
 420              		.loc 1 124 6 is_stmt 0
 421 0324 97000000 		call	queue_str_len
 421      E7800000 
 422              	.LVL53:
 124:main.c        **** 			memset(write_to_sd, '\0', sizeof(write_to_sd));
 423              		.loc 1 124 5
 424 032c 9547     		li	a5,5
 425 032e E3D0A7EC 		ble	a0,a5,.L4
 125:main.c        **** 			//printf("x=%d, y=%d, z=%d\r\n", last_Sample_buffer[0],last_Sample_buffer[1],last_Sample_buffer[
 426              		.loc 1 125 4 is_stmt 1
 427 0332 0566     		li	a2,4096
 428 0334 8145     		li	a1,0
 429 0336 130606A0 		addi	a2,a2,-1536
 430 033a 2285     		mv	a0,s0
 431 033c 97000000 		call	memset
 431      E7800000 
 432              	.LVL54:
 127:main.c        **** 			if (dequeue_string(write_to_sd, 5)) { //Behövs högre hastighet så kan vi öka denna 5:an
 433              		.loc 1 127 4
 434 0344 0145     		li	a0,0
 435 0346 97000000 		call	fflush
 435      E7800000 
 436              	.LVL55:
 128:main.c        **** 				f_write(&fil, write_to_sd, strlen(write_to_sd), &bw);
 437              		.loc 1 128 4
 128:main.c        **** 				f_write(&fil, write_to_sd, strlen(write_to_sd), &bw);
 438              		.loc 1 128 8 is_stmt 0
 439 034e 9545     		li	a1,5
 440 0350 2285     		mv	a0,s0
 441 0352 97000000 		call	dequeue_string
 441      E7800000 
 442              	.LVL56:
 128:main.c        **** 				f_write(&fil, write_to_sd, strlen(write_to_sd), &bw);
 443              		.loc 1 128 7
 444 035a E30A05E8 		beq	a0,zero,.L4
 129:main.c        **** 				f_sync(&fil);
 445              		.loc 1 129 5 is_stmt 1
 446 035e 2285     		mv	a0,s0
 447 0360 97000000 		call	strlen
 447      E7800000 
 448              	.LVL57:
 449 0368 2A86     		mv	a2,a0
GAS LISTING C:\Users\Jesper\AppData\Local\Temp\ccTMvnxl.s 			page 13


 450 036a A686     		mv	a3,s1
 451 036c A285     		mv	a1,s0
 452 036e 4E85     		mv	a0,s3
 453 0370 97000000 		call	f_write
 453      E7800000 
 454              	.LVL58:
 130:main.c        **** 			}
 455              		.loc 1 130 5
 456 0378 4E85     		mv	a0,s3
 457 037a 97000000 		call	f_sync
 457      E7800000 
 458              	.LVL59:
 459 0382 B5B5     		j	.L4
 460              	.LVL60:
 461              	.L6:
 119:main.c        **** 				onOff = 1;
 462              		.loc 1 119 5
 463 0384 97000000 		call	led_off_B0
 463      E7800000 
 464              	.LVL61:
 120:main.c        **** 			}
 465              		.loc 1 120 5
 114:main.c        **** 			if(onOff){
 466              		.loc 1 114 10 is_stmt 0
 467 038c 0149     		li	s2,0
 120:main.c        **** 			}
 468              		.loc 1 120 11
 469 038e 854B     		li	s7,1
 470 0390 51BF     		j	.L5
 471              	.LVL62:
 472              	.L12:
 141:main.c        **** 		f_sync(&fil);
 473              		.loc 1 141 3 is_stmt 1
 474 0392 4A85     		mv	a0,s2
 475 0394 97000000 		call	strlen
 475      E7800000 
 476              	.LVL63:
 477 039c 2A86     		mv	a2,a0
 478 039e D286     		mv	a3,s4
 479 03a0 CA85     		mv	a1,s2
 480 03a2 4E85     		mv	a0,s3
 481 03a4 97000000 		call	f_write
 481      E7800000 
 482              	.LVL64:
 142:main.c        **** 		write_to_sd[0] = '\0';
 483              		.loc 1 142 3
 484 03ac 4E85     		mv	a0,s3
 485 03ae 97000000 		call	f_sync
 485      E7800000 
 486              	.LVL65:
 143:main.c        **** 	}    
 487              		.loc 1 143 3
 143:main.c        **** 	}    
 488              		.loc 1 143 18 is_stmt 0
 489 03b6 23800460 		sb	zero,1536(s1)
 490 03ba D9B5     		j	.L11
 491              		.cfi_endproc
GAS LISTING C:\Users\Jesper\AppData\Local\Temp\ccTMvnxl.s 			page 14


 492              	.LFE7:
 494              		.globl	__fixsfsi
 495              		.section	.text.TIMER1_IRQHandler,"ax",@progbits
 496              		.align	1
 497              		.globl	TIMER1_IRQHandler
 499              	TIMER1_IRQHandler:
 500              	.LFB8:
 150:main.c        **** 
 151:main.c        **** 
 152:main.c        **** void TIMER1_IRQHandler(void){
 501              		.loc 1 152 29 is_stmt 1
 502              		.cfi_startproc
 153:main.c        ****     char buf[64] = {'\0'};
 503              		.loc 1 153 5
 152:main.c        ****     char buf[64] = {'\0'};
 504              		.loc 1 152 29 is_stmt 0
 505 0000 1D71     		addi	sp,sp,-96
 506              	.LCFI5:
 507              		.cfi_def_cfa_offset 96
 508              		.loc 1 153 10
 509 0002 13060004 		li	a2,64
 510 0006 8145     		li	a1,0
 511 0008 0808     		addi	a0,sp,16
 152:main.c        ****     char buf[64] = {'\0'};
 512              		.loc 1 152 29
 513 000a 86CE     		sw	ra,92(sp)
 514 000c A2CC     		sw	s0,88(sp)
 515              		.cfi_offset 1, -4
 516              		.cfi_offset 8, -8
 517              		.loc 1 153 10
 518 000e 97000000 		call	memset
 518      E7800000 
 519              	.LVL66:
 154:main.c        ****     int buf_size = 0;   
 520              		.loc 1 154 5 is_stmt 1
 155:main.c        **** 	time_elapsed++;
 521              		.loc 1 155 2
 522              		.loc 1 155 14 is_stmt 0
 523 0016 B7070000 		lui	a5,%hi(.LANCHOR1)
 524 001a 93870700 		addi	a5,a5,%lo(.LANCHOR1)
 525 001e 9843     		lw	a4,0(a5)
 156:main.c        ****     dma_vector_t vector_write;
 157:main.c        **** 	mpu_vector_t vec;
 158:main.c        ****     /* Check which channel triggered the interrupt */
 159:main.c        ****     if(SET == timer_interrupt_flag_get(TIMER1, TIMER_INT_CH0)){
 526              		.loc 1 159 15
 527 0020 8945     		li	a1,2
 528 0022 37050040 		li	a0,1073741824
 155:main.c        **** 	time_elapsed++;
 529              		.loc 1 155 14
 530 0026 0507     		addi	a4,a4,1
 531 0028 98C3     		sw	a4,0(a5)
 156:main.c        ****     dma_vector_t vector_write;
 532              		.loc 1 156 5 is_stmt 1
 157:main.c        ****     /* Check which channel triggered the interrupt */
 533              		.loc 1 157 2
 534              		.loc 1 159 5
GAS LISTING C:\Users\Jesper\AppData\Local\Temp\ccTMvnxl.s 			page 15


 535              		.loc 1 159 15 is_stmt 0
 536 002a 97000000 		call	timer_interrupt_flag_get
 536      E7800000 
 537              	.LVL67:
 538              		.loc 1 159 7
 539 0032 8547     		li	a5,1
 540 0034 6318F50A 		bne	a0,a5,.L17
 160:main.c        ****         
 161:main.c        **** 		mpu6500_getAccel(&vec);
 541              		.loc 1 161 3 is_stmt 1
 542 0038 4800     		addi	a0,sp,4
 543 003a 97000000 		call	mpu6500_getAccel
 543      E7800000 
 544              	.LVL68:
 162:main.c        **** 		last_Sample_buffer[0] = (int16_t)vec.x;
 545              		.loc 1 162 3
 546              		.loc 1 162 27 is_stmt 0
 547 0042 1245     		lw	a0,4(sp)
 548              		.loc 1 162 25
 549 0044 37040000 		lui	s0,%hi(.LANCHOR2)
 550 0048 13040400 		addi	s0,s0,%lo(.LANCHOR2)
 551              		.loc 1 162 27
 552 004c 97000000 		call	__fixsfsi
 552      E7800000 
 553              	.LVL69:
 554 0054 4205     		slli	a0,a0,16
 555 0056 4185     		srai	a0,a0,16
 556              		.loc 1 162 25
 557 0058 2310A400 		sh	a0,0(s0)
 163:main.c        **** 		last_Sample_buffer[1] = (int16_t)vec.y;
 558              		.loc 1 163 3 is_stmt 1
 559              		.loc 1 163 27 is_stmt 0
 560 005c 2245     		lw	a0,8(sp)
 561 005e 97000000 		call	__fixsfsi
 561      E7800000 
 562              	.LVL70:
 563 0066 4205     		slli	a0,a0,16
 564 0068 4185     		srai	a0,a0,16
 565              		.loc 1 163 25
 566 006a 2311A400 		sh	a0,2(s0)
 164:main.c        **** 		last_Sample_buffer[2] = (int16_t)vec.z;
 567              		.loc 1 164 3 is_stmt 1
 568              		.loc 1 164 27 is_stmt 0
 569 006e 3245     		lw	a0,12(sp)
 570 0070 97000000 		call	__fixsfsi
 570      E7800000 
 571              	.LVL71:
 572 0078 4205     		slli	a0,a0,16
 573 007a 4185     		srai	a0,a0,16
 574              		.loc 1 164 25
 575 007c 2312A400 		sh	a0,4(s0)
 165:main.c        **** 		append_int_to_string(buf, last_Sample_buffer[0]);
 576              		.loc 1 165 3 is_stmt 1
 577              		.loc 1 165 47 is_stmt 0
 578 0080 83550400 		lhu	a1,0(s0)
 579              		.loc 1 165 3
 580 0084 0808     		addi	a0,sp,16
GAS LISTING C:\Users\Jesper\AppData\Local\Temp\ccTMvnxl.s 			page 16


 581 0086 C205     		slli	a1,a1,16
 582 0088 C185     		srai	a1,a1,16
 583 008a 97000000 		call	append_int_to_string
 583      E7800000 
 584              	.LVL72:
 166:main.c        ****         append_int_to_string(buf, last_Sample_buffer[1]);
 585              		.loc 1 166 9 is_stmt 1
 586              		.loc 1 166 53 is_stmt 0
 587 0092 83552400 		lhu	a1,2(s0)
 588              		.loc 1 166 9
 589 0096 0808     		addi	a0,sp,16
 590 0098 C205     		slli	a1,a1,16
 591 009a C185     		srai	a1,a1,16
 592 009c 97000000 		call	append_int_to_string
 592      E7800000 
 593              	.LVL73:
 167:main.c        ****         append_int_to_string(buf, last_Sample_buffer[2]);
 594              		.loc 1 167 9 is_stmt 1
 595              		.loc 1 167 53 is_stmt 0
 596 00a4 83554400 		lhu	a1,4(s0)
 597              		.loc 1 167 9
 598 00a8 0808     		addi	a0,sp,16
 599 00aa C205     		slli	a1,a1,16
 600 00ac C185     		srai	a1,a1,16
 601 00ae 97000000 		call	append_int_to_string
 601      E7800000 
 602              	.LVL74:
 168:main.c        **** 
 169:main.c        ****         append_newLine(buf, strlen(buf)); //Testa byt strlen till buf_size för bättre prestanda
 603              		.loc 1 169 9 is_stmt 1
 604              		.loc 1 169 29 is_stmt 0
 605 00b6 0808     		addi	a0,sp,16
 606 00b8 97000000 		call	strlen
 606      E7800000 
 607              	.LVL75:
 608              		.loc 1 169 9
 609 00c0 AA85     		mv	a1,a0
 610 00c2 0808     		addi	a0,sp,16
 611 00c4 97000000 		call	append_newLine
 611      E7800000 
 612              	.LVL76:
 170:main.c        ****         enqueue_string(buf);
 613              		.loc 1 170 9 is_stmt 1
 614 00cc 0808     		addi	a0,sp,16
 615 00ce 97000000 		call	enqueue_string
 615      E7800000 
 616              	.LVL77:
 171:main.c        **** 
 172:main.c        ****         timer_interrupt_flag_clear(TIMER1, TIMER_INT_CH0);
 617              		.loc 1 172 9
 618 00d6 8945     		li	a1,2
 619 00d8 37050040 		li	a0,1073741824
 620 00dc 97000000 		call	timer_interrupt_flag_clear
 620      E7800000 
 621              	.LVL78:
 622              	.L17:
 173:main.c        ****     }
GAS LISTING C:\Users\Jesper\AppData\Local\Temp\ccTMvnxl.s 			page 17


 174:main.c        **** }
 623              		.loc 1 174 1 is_stmt 0
 624 00e4 F640     		lw	ra,92(sp)
 625              		.cfi_restore 1
 626 00e6 6644     		lw	s0,88(sp)
 627              		.cfi_restore 8
 628 00e8 2561     		addi	sp,sp,96
 629              	.LCFI6:
 630              		.cfi_def_cfa_offset 0
 631 00ea 8280     		jr	ra
 632              		.cfi_endproc
 633              	.LFE8:
 635              		.section	.text.ledInit,"ax",@progbits
 636              		.align	1
 637              		.globl	ledInit
 639              	ledInit:
 640              	.LFB9:
 175:main.c        **** 
 176:main.c        **** void ledInit (void){
 641              		.loc 1 176 20 is_stmt 1
 642              		.cfi_startproc
 177:main.c        ****     rcu_periph_clock_enable(RCU_GPIOB);
 643              		.loc 1 177 5
 176:main.c        ****     rcu_periph_clock_enable(RCU_GPIOB);
 644              		.loc 1 176 20 is_stmt 0
 645 0000 4111     		addi	sp,sp,-16
 646              	.LCFI7:
 647              		.cfi_def_cfa_offset 16
 648              		.loc 1 177 5
 649 0002 13053060 		li	a0,1539
 176:main.c        ****     rcu_periph_clock_enable(RCU_GPIOB);
 650              		.loc 1 176 20
 651 0006 06C6     		sw	ra,12(sp)
 652              		.cfi_offset 1, -4
 653              		.loc 1 177 5
 654 0008 97000000 		call	rcu_periph_clock_enable
 654      E7800000 
 655              	.LVL79:
 178:main.c        **** 	gpio_init(GPIOB, GPIO_MODE_OUT_PP, GPIO_OSPEED_50MHZ, GPIO_PIN_0 | GPIO_PIN_1);
 656              		.loc 1 178 2 is_stmt 1
 179:main.c        **** }
 657              		.loc 1 179 1 is_stmt 0
 658 0010 B240     		lw	ra,12(sp)
 659              		.cfi_restore 1
 178:main.c        **** 	gpio_init(GPIOB, GPIO_MODE_OUT_PP, GPIO_OSPEED_50MHZ, GPIO_PIN_0 | GPIO_PIN_1);
 660              		.loc 1 178 2
 661 0012 37150140 		li	a0,1073811456
 662              		.loc 1 179 1
 178:main.c        **** 	gpio_init(GPIOB, GPIO_MODE_OUT_PP, GPIO_OSPEED_50MHZ, GPIO_PIN_0 | GPIO_PIN_1);
 663              		.loc 1 178 2
 664 0016 8D46     		li	a3,3
 665 0018 0D46     		li	a2,3
 666 001a C145     		li	a1,16
 667 001c 130505C0 		addi	a0,a0,-1024
 668              		.loc 1 179 1
 669 0020 4101     		addi	sp,sp,16
 670              	.LCFI8:
GAS LISTING C:\Users\Jesper\AppData\Local\Temp\ccTMvnxl.s 			page 18


 671              		.cfi_def_cfa_offset 0
 178:main.c        **** 	gpio_init(GPIOB, GPIO_MODE_OUT_PP, GPIO_OSPEED_50MHZ, GPIO_PIN_0 | GPIO_PIN_1);
 672              		.loc 1 178 2
 673 0022 17030000 		tail	gpio_init
 673      67000300 
 674              	.LVL80:
 675              		.cfi_endproc
 676              	.LFE9:
 678              		.section	.text.led_on_B1,"ax",@progbits
 679              		.align	1
 680              		.globl	led_on_B1
 682              	led_on_B1:
 683              	.LFB10:
 180:main.c        **** 
 181:main.c        **** void led_on_B1(){
 684              		.loc 1 181 17 is_stmt 1
 685              		.cfi_startproc
 182:main.c        ****     gpio_bit_write(GPIOB, GPIO_PIN_1, 1);
 686              		.loc 1 182 5
 687 0000 37150140 		li	a0,1073811456
 688 0004 0546     		li	a2,1
 689 0006 8945     		li	a1,2
 690 0008 130505C0 		addi	a0,a0,-1024
 691 000c 17030000 		tail	gpio_bit_write
 691      67000300 
 692              	.LVL81:
 693              		.cfi_endproc
 694              	.LFE10:
 696              		.section	.text.led_off_B1,"ax",@progbits
 697              		.align	1
 698              		.globl	led_off_B1
 700              	led_off_B1:
 701              	.LFB11:
 183:main.c        **** }
 184:main.c        **** void led_off_B1(){
 702              		.loc 1 184 18
 703              		.cfi_startproc
 185:main.c        ****     gpio_bit_write(GPIOB, GPIO_PIN_1, 0);
 704              		.loc 1 185 5
 705 0000 37150140 		li	a0,1073811456
 706 0004 0146     		li	a2,0
 707 0006 8945     		li	a1,2
 708 0008 130505C0 		addi	a0,a0,-1024
 709 000c 17030000 		tail	gpio_bit_write
 709      67000300 
 710              	.LVL82:
 711              		.cfi_endproc
 712              	.LFE11:
 714              		.section	.text.led_on_B0,"ax",@progbits
 715              		.align	1
 716              		.globl	led_on_B0
 718              	led_on_B0:
 719              	.LFB12:
 186:main.c        **** }
 187:main.c        **** 
 188:main.c        **** void led_on_B0(){
 720              		.loc 1 188 17
GAS LISTING C:\Users\Jesper\AppData\Local\Temp\ccTMvnxl.s 			page 19


 721              		.cfi_startproc
 189:main.c        ****     gpio_bit_write(GPIOB, GPIO_PIN_0, 1);
 722              		.loc 1 189 5
 723 0000 37150140 		li	a0,1073811456
 724 0004 0546     		li	a2,1
 725 0006 8545     		li	a1,1
 726 0008 130505C0 		addi	a0,a0,-1024
 727 000c 17030000 		tail	gpio_bit_write
 727      67000300 
 728              	.LVL83:
 729              		.cfi_endproc
 730              	.LFE12:
 732              		.section	.text.led_off_B0,"ax",@progbits
 733              		.align	1
 734              		.globl	led_off_B0
 736              	led_off_B0:
 737              	.LFB13:
 190:main.c        **** }
 191:main.c        **** void led_off_B0(){
 738              		.loc 1 191 18
 739              		.cfi_startproc
 192:main.c        ****     gpio_bit_write(GPIOB, GPIO_PIN_0, 0);
 740              		.loc 1 192 5
 741 0000 37150140 		li	a0,1073811456
 742 0004 0146     		li	a2,0
 743 0006 8545     		li	a1,1
 744 0008 130505C0 		addi	a0,a0,-1024
 745 000c 17030000 		tail	gpio_bit_write
 745      67000300 
 746              	.LVL84:
 747              		.cfi_endproc
 748              	.LFE13:
 750              		.section	.text.timer_interrupt_config,"ax",@progbits
 751              		.align	1
 752              		.globl	timer_interrupt_config
 754              	timer_interrupt_config:
 755              	.LFB14:
 193:main.c        **** }
 194:main.c        **** 
 195:main.c        **** void timer_interrupt_config(){
 756              		.loc 1 195 30
 757              		.cfi_startproc
 196:main.c        ****     /* This configuration has a lot in common with the PWM configuration since both relies on a tim
 197:main.c        ****        this time though instead of generating a puls each timer period we get an interrupt. This ex
 198:main.c        ****        generates an interrupt each millisecond to update a counter and when an even count of 1000 (
 199:main.c        ****        the interrupt will toggle an LED. */
 200:main.c        **** 
 201:main.c        ****     /* Configuration structs */ 
 202:main.c        ****     timer_oc_parameter_struct timer_ocinitpara;
 758              		.loc 1 202 5
 203:main.c        ****     timer_parameter_struct timer_initpara;
 759              		.loc 1 203 5
 204:main.c        **** 
 205:main.c        ****     /* Enable the TIMER1 interrupt request */
 206:main.c        ****     eclic_irq_enable(TIMER1_IRQn,1,0);
 760              		.loc 1 206 5
 195:main.c        ****     /* This configuration has a lot in common with the PWM configuration since both relies on a tim
GAS LISTING C:\Users\Jesper\AppData\Local\Temp\ccTMvnxl.s 			page 20


 761              		.loc 1 195 30 is_stmt 0
 762 0000 7971     		addi	sp,sp,-48
 763              	.LCFI9:
 764              		.cfi_def_cfa_offset 48
 765              		.loc 1 206 5
 766 0002 0146     		li	a2,0
 767 0004 8545     		li	a1,1
 768 0006 1305F002 		li	a0,47
 195:main.c        ****     /* This configuration has a lot in common with the PWM configuration since both relies on a tim
 769              		.loc 1 195 30
 770 000a 06D6     		sw	ra,44(sp)
 771 000c 22D4     		sw	s0,40(sp)
 772 000e 26D2     		sw	s1,36(sp)
 773              		.cfi_offset 1, -4
 774              		.cfi_offset 8, -8
 775              		.cfi_offset 9, -12
 776              		.loc 1 206 5
 777 0010 97000000 		call	eclic_irq_enable
 777      E7800000 
 778              	.LVL85:
 207:main.c        ****     
 208:main.c        ****     /* Enable the peripheral clock. */
 209:main.c        ****     rcu_periph_clock_enable(RCU_TIMER1);
 779              		.loc 1 209 5 is_stmt 1
 780 0018 13050070 		li	a0,1792
 781 001c 97000000 		call	rcu_periph_clock_enable
 781      E7800000 
 782              	.LVL86:
 210:main.c        **** 
 211:main.c        ****     /* Reset the timer */
 212:main.c        ****     timer_deinit(TIMER1);
 783              		.loc 1 212 5
 784 0024 37050040 		li	a0,1073741824
 785 0028 97000000 		call	timer_deinit
 785      E7800000 
 786              	.LVL87:
 213:main.c        **** 
 214:main.c        ****     /* initialize timer configuration struct */
 215:main.c        ****     timer_struct_para_init(&timer_initpara);
 787              		.loc 1 215 5
 788 0030 0808     		addi	a0,sp,16
 789 0032 97000000 		call	timer_struct_para_init
 789      E7800000 
 790              	.LVL88:
 216:main.c        ****     /* TIMER1 configuration */
 217:main.c        ****     /* Frequency = core clock / ((1+prescaler)*period) = 108MHz / (2*54000) = 1KHz */
 218:main.c        ****     
 219:main.c        ****     uint32_t period = SystemCoreClock / (DESIRED_FREQUENCY_HZ * 2);
 791              		.loc 1 219 5
 792              		.loc 1 219 39 is_stmt 0
 793 003a 37040000 		lui	s0,%hi(SystemCoreClock)
 794              		.loc 1 219 14
 795 003e 83270400 		lw	a5,%lo(SystemCoreClock)(s0)
 796 0042 13074006 		li	a4,100
 220:main.c        ****     timer_initpara.prescaler         = 1;
 221:main.c        ****     timer_initpara.alignedmode       = TIMER_COUNTER_EDGE;
 222:main.c        ****     timer_initpara.counterdirection  = TIMER_COUNTER_UP;
GAS LISTING C:\Users\Jesper\AppData\Local\Temp\ccTMvnxl.s 			page 21


 223:main.c        ****     timer_initpara.period            = period;
 224:main.c        ****     timer_initpara.clockdivision     = TIMER_CKDIV_DIV1;
 225:main.c        ****     timer_init(TIMER1, &timer_initpara);
 797              		.loc 1 225 5
 798 0046 0C08     		addi	a1,sp,16
 219:main.c        ****     timer_initpara.prescaler         = 1;
 799              		.loc 1 219 14
 800 0048 B3D7E702 		divu	a5,a5,a4
 801              	.LVL89:
 220:main.c        ****     timer_initpara.prescaler         = 1;
 802              		.loc 1 220 5 is_stmt 1
 221:main.c        ****     timer_initpara.counterdirection  = TIMER_COUNTER_UP;
 803              		.loc 1 221 5
 222:main.c        ****     timer_initpara.period            = period;
 804              		.loc 1 222 5
 220:main.c        ****     timer_initpara.alignedmode       = TIMER_COUNTER_EDGE;
 805              		.loc 1 220 38 is_stmt 0
 806 004c 8544     		li	s1,1
 807              		.loc 1 225 5
 808 004e 37050040 		li	a0,1073741824
 220:main.c        ****     timer_initpara.alignedmode       = TIMER_COUNTER_EDGE;
 809              		.loc 1 220 38
 810 0052 26C8     		sw	s1,16(sp)
 222:main.c        ****     timer_initpara.period            = period;
 811              		.loc 1 222 38
 812 0054 231A0100 		sh	zero,20(sp)
 223:main.c        ****     timer_initpara.clockdivision     = TIMER_CKDIV_DIV1;
 813              		.loc 1 223 5 is_stmt 1
 224:main.c        ****     timer_init(TIMER1, &timer_initpara);
 814              		.loc 1 224 38 is_stmt 0
 815 0058 231E0100 		sh	zero,28(sp)
 223:main.c        ****     timer_initpara.clockdivision     = TIMER_CKDIV_DIV1;
 816              		.loc 1 223 38
 817 005c 3ECC     		sw	a5,24(sp)
 224:main.c        ****     timer_init(TIMER1, &timer_initpara);
 818              		.loc 1 224 5 is_stmt 1
 819              		.loc 1 225 5
 820 005e 97000000 		call	timer_init
 820      E7800000 
 821              	.LVL90:
 226:main.c        **** 
 227:main.c        ****     /* initialize TIMER channel output parameter struct */
 228:main.c        ****     timer_channel_output_struct_para_init(&timer_ocinitpara);
 822              		.loc 1 228 5
 823 0066 4800     		addi	a0,sp,4
 824 0068 97000000 		call	timer_channel_output_struct_para_init
 824      E7800000 
 825              	.LVL91:
 229:main.c        **** 
 230:main.c        ****     /* Set the channel configuration */
 231:main.c        ****     timer_ocinitpara.outputstate  = TIMER_CCX_ENABLE;
 826              		.loc 1 231 5
 232:main.c        ****     timer_ocinitpara.ocpolarity   = TIMER_OC_POLARITY_HIGH;
 233:main.c        ****     timer_ocinitpara.ocidlestate  = TIMER_OC_IDLE_STATE_LOW;
 234:main.c        ****     timer_channel_output_config(TIMER1, TIMER_CH_0, &timer_ocinitpara);
 827              		.loc 1 234 5 is_stmt 0
 828 0070 5000     		addi	a2,sp,4
GAS LISTING C:\Users\Jesper\AppData\Local\Temp\ccTMvnxl.s 			page 22


 829 0072 8145     		li	a1,0
 830 0074 37050040 		li	a0,1073741824
 231:main.c        ****     timer_ocinitpara.ocpolarity   = TIMER_OC_POLARITY_HIGH;
 831              		.loc 1 231 35
 832 0078 23129100 		sh	s1,4(sp)
 232:main.c        ****     timer_ocinitpara.ocpolarity   = TIMER_OC_POLARITY_HIGH;
 833              		.loc 1 232 5 is_stmt 1
 232:main.c        ****     timer_ocinitpara.ocpolarity   = TIMER_OC_POLARITY_HIGH;
 834              		.loc 1 232 35 is_stmt 0
 835 007c 23140100 		sh	zero,8(sp)
 233:main.c        ****     timer_channel_output_config(TIMER1, TIMER_CH_0, &timer_ocinitpara);
 836              		.loc 1 233 5 is_stmt 1
 233:main.c        ****     timer_channel_output_config(TIMER1, TIMER_CH_0, &timer_ocinitpara);
 837              		.loc 1 233 35 is_stmt 0
 838 0080 23160100 		sh	zero,12(sp)
 839              		.loc 1 234 5 is_stmt 1
 840 0084 97000000 		call	timer_channel_output_config
 840      E7800000 
 841              	.LVL92:
 235:main.c        ****     
 236:main.c        ****     /* CH0 configuration in OC timing mode */
 237:main.c        ****     timer_channel_output_pulse_value_config(TIMER1, TIMER_CH_0, SystemCoreClock/4000);
 842              		.loc 1 237 5
 843 008c 03260400 		lw	a2,%lo(SystemCoreClock)(s0)
 844 0090 8567     		li	a5,4096
 845 0092 938707FA 		addi	a5,a5,-96
 846 0096 3356F602 		divu	a2,a2,a5
 847 009a 8145     		li	a1,0
 848 009c 37050040 		li	a0,1073741824
 849 00a0 97000000 		call	timer_channel_output_pulse_value_config
 849      E7800000 
 850              	.LVL93:
 238:main.c        ****     timer_channel_output_mode_config(TIMER1, TIMER_CH_0, TIMER_OC_MODE_TIMING);
 851              		.loc 1 238 5
 852 00a8 0146     		li	a2,0
 853 00aa 8145     		li	a1,0
 854 00ac 37050040 		li	a0,1073741824
 855 00b0 97000000 		call	timer_channel_output_mode_config
 855      E7800000 
 856              	.LVL94:
 239:main.c        ****     timer_channel_output_shadow_config(TIMER1, TIMER_CH_0, TIMER_OC_SHADOW_DISABLE);
 857              		.loc 1 239 5
 858 00b8 0146     		li	a2,0
 859 00ba 8145     		li	a1,0
 860 00bc 37050040 		li	a0,1073741824
 861 00c0 97000000 		call	timer_channel_output_shadow_config
 861      E7800000 
 862              	.LVL95:
 240:main.c        **** 
 241:main.c        ****     /* Enable interrupt on the channel */
 242:main.c        ****     timer_interrupt_enable(TIMER1, TIMER_INT_CH0);
 863              		.loc 1 242 5
 864 00c8 8945     		li	a1,2
 865 00ca 37050040 		li	a0,1073741824
 866 00ce 97000000 		call	timer_interrupt_enable
 866      E7800000 
 867              	.LVL96:
GAS LISTING C:\Users\Jesper\AppData\Local\Temp\ccTMvnxl.s 			page 23


 243:main.c        ****     /* Make sure interrupt flag is clear */
 244:main.c        ****     timer_interrupt_flag_clear(TIMER1, TIMER_INT_CH0);
 868              		.loc 1 244 5
 869 00d6 8945     		li	a1,2
 870 00d8 37050040 		li	a0,1073741824
 871 00dc 97000000 		call	timer_interrupt_flag_clear
 871      E7800000 
 872              	.LVL97:
 245:main.c        **** 
 246:main.c        ****     /* Start the timer */
 247:main.c        ****     timer_enable(TIMER1);
 873              		.loc 1 247 5
 874 00e4 37050040 		li	a0,1073741824
 875 00e8 97000000 		call	timer_enable
 875      E7800000 
 876              	.LVL98:
 248:main.c        **** }
 877              		.loc 1 248 1 is_stmt 0
 878 00f0 B250     		lw	ra,44(sp)
 879              		.cfi_restore 1
 880 00f2 2254     		lw	s0,40(sp)
 881              		.cfi_restore 8
 882 00f4 9254     		lw	s1,36(sp)
 883              		.cfi_restore 9
 884 00f6 4561     		addi	sp,sp,48
 885              	.LCFI10:
 886              		.cfi_def_cfa_offset 0
 887 00f8 8280     		jr	ra
 888              		.cfi_endproc
 889              	.LFE14:
 891              		.section	.text.int_to_string,"ax",@progbits
 892              		.align	1
 893              		.globl	int_to_string
 895              	int_to_string:
 896              	.LFB15:
 249:main.c        **** 
 250:main.c        **** int int_to_string(char *string, int integer){
 897              		.loc 1 250 45 is_stmt 1
 898              		.cfi_startproc
 899              	.LVL99:
 251:main.c        ****     int i = 0;
 900              		.loc 1 251 5
 252:main.c        ****     int divider = 1000;
 901              		.loc 1 252 5
 253:main.c        ****     if(integer < 0){
 902              		.loc 1 253 5
 250:main.c        ****     int i = 0;
 903              		.loc 1 250 45 is_stmt 0
 904 0000 AA87     		mv	a5,a0
 905              		.loc 1 253 7
 906 0002 63D30506 		bge	a1,zero,.L29
 254:main.c        ****         string[i++] = '-';
 907              		.loc 1 254 9 is_stmt 1
 908              	.LVL100:
 909              		.loc 1 254 21 is_stmt 0
 910 0006 1307D002 		li	a4,45
 911 000a 2300E500 		sb	a4,0(a0)
GAS LISTING C:\Users\Jesper\AppData\Local\Temp\ccTMvnxl.s 			page 24


 255:main.c        ****         integer = -integer;
 912              		.loc 1 255 9 is_stmt 1
 913              		.loc 1 255 17 is_stmt 0
 914 000e B305B040 		neg	a1,a1
 915              	.LVL101:
 254:main.c        ****         string[i++] = '-';
 916              		.loc 1 254 17
 917 0012 0547     		li	a4,1
 918              	.LVL102:
 919              	.L30:
 256:main.c        ****     }else if(integer == 0){
 257:main.c        ****         string[i++] = '0';
 258:main.c        ****         string[i++] = ';';
 259:main.c        ****         string[i] = '\0';
 260:main.c        ****         return i;
 261:main.c        ****     }
 262:main.c        ****     int og_num = integer;
 920              		.loc 1 262 5 is_stmt 1
 263:main.c        ****     while (integer >= divider * 10) {
 921              		.loc 1 263 5
 252:main.c        ****     if(integer < 0){
 922              		.loc 1 252 9 is_stmt 0
 923 0014 9306803E 		li	a3,1000
 924              		.loc 1 263 31
 925 0018 2945     		li	a0,10
 926              	.LVL103:
 927              	.L32:
 928 001a 3386A602 		mul	a2,a3,a0
 929              		.loc 1 263 11
 930 001e 63D3C506 		ble	a2,a1,.L37
 931 0022 2E85     		mv	a0,a1
 932              	.LBB2:
 264:main.c        ****         divider *= 10; 
 265:main.c        ****     }
 266:main.c        **** 
 267:main.c        ****     while(divider){
 268:main.c        ****         char digit = (integer/divider)+ '0';
 269:main.c        ****         if(digit != '0' || og_num > integer){
 933              		.loc 1 269 11
 934 0024 93080003 		li	a7,48
 270:main.c        ****             string[i++] = digit; 
 271:main.c        ****         }
 272:main.c        ****         
 273:main.c        ****         integer %= divider;
 274:main.c        ****         divider /= 10;
 935              		.loc 1 274 17
 936 0028 2948     		li	a6,10
 937              	.LVL104:
 938              	.L35:
 268:main.c        ****         if(digit != '0' || og_num > integer){
 939              		.loc 1 268 9 is_stmt 1
 268:main.c        ****         if(digit != '0' || og_num > integer){
 940              		.loc 1 268 30 is_stmt 0
 941 002a 3346D502 		div	a2,a0,a3
 268:main.c        ****         if(digit != '0' || og_num > integer){
 942              		.loc 1 268 14
 943 002e 13060603 		addi	a2,a2,48
GAS LISTING C:\Users\Jesper\AppData\Local\Temp\ccTMvnxl.s 			page 25


 944 0032 1376F60F 		andi	a2,a2,0xff
 945              	.LVL105:
 269:main.c        ****             string[i++] = digit; 
 946              		.loc 1 269 9 is_stmt 1
 269:main.c        ****             string[i++] = digit; 
 947              		.loc 1 269 11 is_stmt 0
 948 0036 63141601 		bne	a2,a7,.L33
 269:main.c        ****             string[i++] = digit; 
 949              		.loc 1 269 25 discriminator 1
 950 003a 6357B500 		ble	a1,a0,.L34
 951              	.L33:
 270:main.c        ****             string[i++] = digit; 
 952              		.loc 1 270 13 is_stmt 1
 953              	.LVL106:
 270:main.c        ****             string[i++] = digit; 
 954              		.loc 1 270 25 is_stmt 0
 955 003e 3383E700 		add	t1,a5,a4
 956 0042 2300C300 		sb	a2,0(t1)
 270:main.c        ****             string[i++] = digit; 
 957              		.loc 1 270 21
 958 0046 0507     		addi	a4,a4,1
 959              	.LVL107:
 960              	.L34:
 273:main.c        ****         divider /= 10;
 961              		.loc 1 273 9 is_stmt 1
 273:main.c        ****         divider /= 10;
 962              		.loc 1 273 17 is_stmt 0
 963 0048 3365D502 		rem	a0,a0,a3
 964              	.LVL108:
 965              		.loc 1 274 9 is_stmt 1
 966              		.loc 1 274 17 is_stmt 0
 967 004c B3C60603 		div	a3,a3,a6
 968              	.LVL109:
 969              	.LBE2:
 267:main.c        ****         char digit = (integer/divider)+ '0';
 970              		.loc 1 267 10
 971 0050 E9FE     		bne	a3,zero,.L35
 275:main.c        ****     }
 276:main.c        ****     string[i++] = ';';
 972              		.loc 1 276 5 is_stmt 1
 973              		.loc 1 276 13 is_stmt 0
 974 0052 13051700 		addi	a0,a4,1
 975              	.LVL110:
 976              		.loc 1 276 17
 977 0056 9306B003 		li	a3,59
 978              	.LVL111:
 979 005a 3E97     		add	a4,a5,a4
 980 005c 2300D700 		sb	a3,0(a4)
 277:main.c        ****     string[i] = '\0';
 981              		.loc 1 277 5 is_stmt 1
 982              		.loc 1 277 15 is_stmt 0
 983 0060 AA97     		add	a5,a5,a0
 984              	.LVL112:
 985 0062 23800700 		sb	zero,0(a5)
 278:main.c        ****     return i;
 986              		.loc 1 278 5 is_stmt 1
 279:main.c        **** }
GAS LISTING C:\Users\Jesper\AppData\Local\Temp\ccTMvnxl.s 			page 26


 987              		.loc 1 279 1 is_stmt 0
 988 0066 8280     		ret
 989              	.LVL113:
 990              	.L29:
 256:main.c        ****         string[i++] = '0';
 991              		.loc 1 256 11 is_stmt 1
 251:main.c        ****     int divider = 1000;
 992              		.loc 1 251 9 is_stmt 0
 993 0068 0147     		li	a4,0
 256:main.c        ****         string[i++] = '0';
 994              		.loc 1 256 13
 995 006a CDF5     		bne	a1,zero,.L30
 257:main.c        ****         string[i++] = ';';
 996              		.loc 1 257 9 is_stmt 1
 997              	.LVL114:
 257:main.c        ****         string[i++] = ';';
 998              		.loc 1 257 21 is_stmt 0
 999 006c 13070003 		li	a4,48
 1000 0070 2300E500 		sb	a4,0(a0)
 258:main.c        ****         string[i] = '\0';
 1001              		.loc 1 258 9 is_stmt 1
 1002              	.LVL115:
 258:main.c        ****         string[i] = '\0';
 1003              		.loc 1 258 21 is_stmt 0
 1004 0074 1307B003 		li	a4,59
 1005 0078 A300E500 		sb	a4,1(a0)
 259:main.c        ****         return i;
 1006              		.loc 1 259 9 is_stmt 1
 259:main.c        ****         return i;
 1007              		.loc 1 259 19 is_stmt 0
 1008 007c 23010500 		sb	zero,2(a0)
 260:main.c        ****     }
 1009              		.loc 1 260 9 is_stmt 1
 260:main.c        ****     }
 1010              		.loc 1 260 16 is_stmt 0
 1011 0080 0945     		li	a0,2
 1012              	.LVL116:
 1013 0082 8280     		ret
 1014              	.LVL117:
 1015              	.L37:
 1016 0084 B286     		mv	a3,a2
 1017              	.LVL118:
 1018 0086 51BF     		j	.L32
 1019              		.cfi_endproc
 1020              	.LFE15:
 1022              		.section	.text.append_int_to_string,"ax",@progbits
 1023              		.align	1
 1024              		.globl	append_int_to_string
 1026              	append_int_to_string:
 1027              	.LFB16:
 280:main.c        **** 
 281:main.c        **** int append_int_to_string(char *string, int integer){
 1028              		.loc 1 281 52 is_stmt 1
 1029              		.cfi_startproc
 1030              	.LVL119:
 282:main.c        ****     char temp[20] = {'\0'};
 1031              		.loc 1 282 5
GAS LISTING C:\Users\Jesper\AppData\Local\Temp\ccTMvnxl.s 			page 27


 281:main.c        ****     char temp[20] = {'\0'};
 1032              		.loc 1 281 52 is_stmt 0
 1033 0000 7971     		addi	sp,sp,-48
 1034              	.LCFI11:
 1035              		.cfi_def_cfa_offset 48
 1036 0002 22D4     		sw	s0,40(sp)
 1037              		.cfi_offset 8, -8
 1038 0004 2A84     		mv	s0,a0
 283:main.c        ****     int_to_string(temp, integer);
 1039              		.loc 1 283 5
 1040 0006 6800     		addi	a0,sp,12
 1041              	.LVL120:
 281:main.c        ****     char temp[20] = {'\0'};
 1042              		.loc 1 281 52
 1043 0008 06D6     		sw	ra,44(sp)
 1044              		.cfi_offset 1, -4
 282:main.c        ****     char temp[20] = {'\0'};
 1045              		.loc 1 282 10
 1046 000a 02C6     		sw	zero,12(sp)
 1047 000c 02C8     		sw	zero,16(sp)
 1048 000e 02CA     		sw	zero,20(sp)
 1049 0010 02CC     		sw	zero,24(sp)
 1050 0012 02CE     		sw	zero,28(sp)
 1051              		.loc 1 283 5 is_stmt 1
 1052 0014 97000000 		call	int_to_string
 1052      E7800000 
 1053              	.LVL121:
 284:main.c        ****     int len = fuseStrings(string, temp);
 1054              		.loc 1 284 5
 1055              		.loc 1 284 15 is_stmt 0
 1056 001c 6C00     		addi	a1,sp,12
 1057 001e 2285     		mv	a0,s0
 1058 0020 97000000 		call	fuseStrings
 1058      E7800000 
 1059              	.LVL122:
 285:main.c        ****     return len;
 1060              		.loc 1 285 5 is_stmt 1
 286:main.c        **** }
 1061              		.loc 1 286 1 is_stmt 0
 1062 0028 B250     		lw	ra,44(sp)
 1063              		.cfi_restore 1
 1064 002a 2254     		lw	s0,40(sp)
 1065              		.cfi_restore 8
 1066              	.LVL123:
 1067 002c 4561     		addi	sp,sp,48
 1068              	.LCFI12:
 1069              		.cfi_def_cfa_offset 0
 1070 002e 8280     		jr	ra
 1071              		.cfi_endproc
 1072              	.LFE16:
 1074              		.section	.text.append_newLine,"ax",@progbits
 1075              		.align	1
 1076              		.globl	append_newLine
 1078              	append_newLine:
 1079              	.LFB17:
 287:main.c        **** 
 288:main.c        **** void append_newLine(char *string, int length) {
GAS LISTING C:\Users\Jesper\AppData\Local\Temp\ccTMvnxl.s 			page 28


 1080              		.loc 1 288 47 is_stmt 1
 1081              		.cfi_startproc
 1082              	.LVL124:
 289:main.c        ****     string[length-1] = '\n';
 1083              		.loc 1 289 5
 1084              		.loc 1 289 22 is_stmt 0
 1085 0000 AA95     		add	a1,a0,a1
 1086              	.LVL125:
 1087 0002 A947     		li	a5,10
 1088 0004 A38FF5FE 		sb	a5,-1(a1)
 290:main.c        ****     string[length] = '\0'; // Add a null terminator at the new end
 1089              		.loc 1 290 5 is_stmt 1
 1090              		.loc 1 290 20 is_stmt 0
 1091 0008 23800500 		sb	zero,0(a1)
 291:main.c        **** }
 1092              		.loc 1 291 1
 1093 000c 8280     		ret
 1094              		.cfi_endproc
 1095              	.LFE17:
 1097              		.globl	__floatundidf
 1098              		.globl	__muldf3
 1099              		.globl	__floatunsidf
 1100              		.globl	__divdf3
 1101              		.globl	__fixdfsi
 1102              		.section	.text.millis,"ax",@progbits
 1103              		.align	1
 1104              		.globl	millis
 1106              	millis:
 1107              	.LFB18:
 292:main.c        **** 
 293:main.c        **** int millis(void) {
 1108              		.loc 1 293 18 is_stmt 1
 1109              		.cfi_startproc
 294:main.c        ****     uint64_t mtime = get_timer_value();
 1110              		.loc 1 294 5
 293:main.c        ****     uint64_t mtime = get_timer_value();
 1111              		.loc 1 293 18 is_stmt 0
 1112 0000 4111     		addi	sp,sp,-16
 1113              	.LCFI13:
 1114              		.cfi_def_cfa_offset 16
 1115 0002 06C6     		sw	ra,12(sp)
 1116 0004 22C4     		sw	s0,8(sp)
 1117 0006 26C2     		sw	s1,4(sp)
 1118              		.cfi_offset 1, -4
 1119              		.cfi_offset 8, -8
 1120              		.cfi_offset 9, -12
 1121              		.loc 1 294 22
 1122 0008 97000000 		call	get_timer_value
 1122      E7800000 
 1123              	.LVL126:
 295:main.c        ****     return ((mtime * 4000.0) / SystemCoreClock); // Adjusted for seconds and milliseconds
 1124              		.loc 1 295 5 is_stmt 1
 1125              		.loc 1 295 20 is_stmt 0
 1126 0010 97000000 		call	__floatundidf
 1126      E7800000 
 1127              	.LVL127:
 1128 0018 B7070000 		lui	a5,%hi(.LANCHOR0+120)
GAS LISTING C:\Users\Jesper\AppData\Local\Temp\ccTMvnxl.s 			page 29


 1129 001c 03A68707 		lw	a2,%lo(.LANCHOR0+120)(a5)
 1130 0020 83A6C707 		lw	a3,%lo(.LANCHOR0+124)(a5)
 1131 0024 97000000 		call	__muldf3
 1131      E7800000 
 1132              	.LVL128:
 1133              		.loc 1 295 30
 1134 002c B7070000 		lui	a5,%hi(SystemCoreClock)
 1135              		.loc 1 295 20
 1136 0030 2A84     		mv	s0,a0
 1137              		.loc 1 295 30
 1138 0032 03A50700 		lw	a0,%lo(SystemCoreClock)(a5)
 1139              		.loc 1 295 20
 1140 0036 AE84     		mv	s1,a1
 1141              		.loc 1 295 30
 1142 0038 97000000 		call	__floatunsidf
 1142      E7800000 
 1143              	.LVL129:
 1144 0040 2A86     		mv	a2,a0
 1145 0042 AE86     		mv	a3,a1
 1146 0044 2285     		mv	a0,s0
 1147 0046 A685     		mv	a1,s1
 1148 0048 97000000 		call	__divdf3
 1148      E7800000 
 1149              	.LVL130:
 1150 0050 97000000 		call	__fixdfsi
 1150      E7800000 
 1151              	.LVL131:
 296:main.c        **** }
 1152              		.loc 1 296 1
 1153 0058 B240     		lw	ra,12(sp)
 1154              		.cfi_restore 1
 1155 005a 2244     		lw	s0,8(sp)
 1156              		.cfi_restore 8
 1157 005c 9244     		lw	s1,4(sp)
 1158              		.cfi_restore 9
 1159 005e 4101     		addi	sp,sp,16
 1160              	.LCFI14:
 1161              		.cfi_def_cfa_offset 0
 1162 0060 8280     		jr	ra
 1163              		.cfi_endproc
 1164              	.LFE18:
 1166              		.section	.text.init_mpu,"ax",@progbits
 1167              		.align	1
 1168              		.globl	init_mpu
 1170              	init_mpu:
 1171              	.LFB19:
 297:main.c        **** 
 298:main.c        **** void init_mpu(void){
 1172              		.loc 1 298 20 is_stmt 1
 1173              		.cfi_startproc
 299:main.c        ****     rcu_periph_clock_enable(RCU_GPIOB);
 1174              		.loc 1 299 5
 298:main.c        ****     rcu_periph_clock_enable(RCU_GPIOB);
 1175              		.loc 1 298 20 is_stmt 0
 1176 0000 4111     		addi	sp,sp,-16
 1177              	.LCFI15:
 1178              		.cfi_def_cfa_offset 16
GAS LISTING C:\Users\Jesper\AppData\Local\Temp\ccTMvnxl.s 			page 30


 1179              		.loc 1 299 5
 1180 0002 13053060 		li	a0,1539
 298:main.c        ****     rcu_periph_clock_enable(RCU_GPIOB);
 1181              		.loc 1 298 20
 1182 0006 06C6     		sw	ra,12(sp)
 1183              		.cfi_offset 1, -4
 1184              		.loc 1 299 5
 1185 0008 97000000 		call	rcu_periph_clock_enable
 1185      E7800000 
 1186              	.LVL132:
 300:main.c        ****     rcu_periph_clock_enable(RCU_I2C0);
 1187              		.loc 1 300 5 is_stmt 1
 1188 0010 13055071 		li	a0,1813
 1189 0014 97000000 		call	rcu_periph_clock_enable
 1189      E7800000 
 1190              	.LVL133:
 301:main.c        ****     gpio_init(GPIOB, GPIO_MODE_AF_OD, GPIO_OSPEED_50MHZ, GPIO_PIN_6 | GPIO_PIN_7); //led?
 1191              		.loc 1 301 5
 1192 001c 37150140 		li	a0,1073811456
 1193 0020 9306000C 		li	a3,192
 1194 0024 0D46     		li	a2,3
 1195 0026 F145     		li	a1,28
 1196 0028 130505C0 		addi	a0,a0,-1024
 1197 002c 97000000 		call	gpio_init
 1197      E7800000 
 1198              	.LVL134:
 302:main.c        **** 
 303:main.c        ****     mpu6500_install(I2C0);
 1199              		.loc 1 303 5
 1200 0034 37550040 		li	a0,1073762304
 1201 0038 13050540 		addi	a0,a0,1024
 1202 003c 97000000 		call	mpu6500_install
 1202      E7800000 
 1203              	.LVL135:
 304:main.c        **** 
 305:main.c        ****     delay_1ms(100);   
 1204              		.loc 1 305 5
 306:main.c        **** }...
 1205              		.loc 1 306 1 is_stmt 0
 1206 0044 B240     		lw	ra,12(sp)
 1207              		.cfi_restore 1
 305:main.c        ****     delay_1ms(100);   
 1208              		.loc 1 305 5
 1209 0046 13054006 		li	a0,100
 1210              		.loc 1 306 1
 1211 004a 4101     		addi	sp,sp,16
 1212              	.LCFI16:
 1213              		.cfi_def_cfa_offset 0
 305:main.c        ****     delay_1ms(100);   
 1214              		.loc 1 305 5
 1215 004c 17030000 		tail	delay_1ms
 1215      67000300 
 1216              	.LVL136:
 1217              		.cfi_endproc
 1218              	.LFE19:
 1220              		.section	.rodata
 1221              		.align	3
GAS LISTING C:\Users\Jesper\AppData\Local\Temp\ccTMvnxl.s 			page 31


 1222              		.set	.LANCHOR0,. + 0
 1223              	.LC0:
 1224 0000 72656164 		.string	"ready\r"
 1224      790D00
 1225 0007 00       		.zero	1
 1226              	.LC1:
 1227 0008 74657374 		.string	"test"
 1227      00
 1228 000d 000000   		.zero	3
 1229              	.LC2:
 1230 0010 6D70750D 		.string	"mpu\r"
 1230      00
 1231 0015 000000   		.zero	3
 1232              	.LC3:
 1233 0018 6D707532 		.string	"mpu2\r"
 1233      0D00
 1234 001e 0000     		.zero	2
 1235              	.LC4:
 1236 0020 54446174 		.string	"TData.CSV"
 1236      612E4353 
 1236      5600
 1237 002a 0000     		.zero	2
 1238              	.LC5:
 1239 002c 582D6163 		.string	"X-acc;Y-acc;Z-acc\n"
 1239      633B592D 
 1239      6163633B 
 1239      5A2D6163 
 1239      630A00
 1240 003f 00       		.zero	1
 1241              	.LC6:
 1242 0040 72756E6E 		.string	"running\r"
 1242      696E670D 
 1242      00
 1243 0049 000000   		.zero	3
 1244              	.LC7:
 1245 004c 62726561 		.string	"breaking\r"
 1245      6B696E67 
 1245      0D00
 1246 0056 0000     		.zero	2
 1247              	.LC8:
 1248 0058 66696E69 		.string	"finished in %d (s)\r\n"
 1248      73686564 
 1248      20696E20 
 1248      25642028 
 1248      73290D0A 
 1249 006d 000000   		.zero	3
 1250              	.LC9:
 1251 0070 646F6E65 		.string	"done\r"
 1251      0D00
 1252 0076 0000     		.zero	2
 1253              	.LC10:
 1254 0078 00000000 		.word	0
 1255 007c 0040AF40 		.word	1085227008
 1256              		.section	.bss.last_Sample_buffer,"aw",@nobits
 1257              		.align	2
 1258              		.set	.LANCHOR2,. + 0
 1261              	last_Sample_buffer:
GAS LISTING C:\Users\Jesper\AppData\Local\Temp\ccTMvnxl.s 			page 32


 1262 0000 00000000 		.zero	14
 1262      00000000 
 1262      00000000 
 1262      0000
 1263              		.section	.sbss.time_elapsed,"aw",@nobits
 1264              		.align	2
 1265              		.set	.LANCHOR1,. + 0
 1268              	time_elapsed:
 1269 0000 00000000 		.zero	4
 1270              		.section	.sdata.pDatabuffer,"aw"
 1271              		.align	2
 1274              	pDatabuffer:
 1275 0000 00000000 		.word	dataBuffer
 1276              		.text
 1277              	.Letext0:
 1278              		.file 2 "c:\\users\\jesper\\documents\\ml_sommarjobb\\toolchain-gd32v-v201-win\\toolchain-gd32v-v2
 1279              		.file 3 "c:\\users\\jesper\\documents\\ml_sommarjobb\\toolchain-gd32v-v201-win\\toolchain-gd32v-v2
 1280              		.file 4 "./../../firmware/GD32VF103_standard_peripheral/gd32vf103.h"
 1281              		.file 5 "./../../firmware/GD32VF103_standard_peripheral/Include/gd32vf103_rcu.h"
 1282              		.file 6 "./../../firmware/GD32VF103_standard_peripheral/Include/gd32vf103_timer.h"
 1283              		.file 7 "lib/usbcdc/include/drv_usb_regs.h"
 1284              		.file 8 "./../../firmware/GD32VF103_standard_peripheral/system_gd32vf103.h"
 1285              		.file 9 "lib/usbcdc/include/usb_ch9_std.h"
 1286              		.file 10 "lib/usbcdc/include/drv_usb_core.h"
 1287              		.file 11 "lib/usbcdc/include/drv_usb_dev.h"
 1288              		.file 12 "c:\\users\\jesper\\documents\\ml_sommarjobb\\toolchain-gd32v-v201-win\\toolchain-gd32v-v
 1289              		.file 13 "c:\\users\\jesper\\documents\\ml_sommarjobb\\toolchain-gd32v-v201-win\\toolchain-gd32v-v
 1290              		.file 14 "c:\\users\\jesper\\documents\\ml_sommarjobb\\toolchain-gd32v-v201-win\\toolchain-gd32v-v
 1291              		.file 15 "c:\\users\\jesper\\documents\\ml_sommarjobb\\toolchain-gd32v-v201-win\\toolchain-gd32v-v
 1292              		.file 16 "lib/usbcdc/include/cdc_acm_core.h"
 1293              		.file 17 "c:\\users\\jesper\\documents\\ml_sommarjobb\\toolchain-gd32v-v201-win\\toolchain-gd32v-v
 1294              		.file 18 "lib/usbcdc/include/usb_serial_if.h"
 1295              		.file 19 "lib/fatfs/include/ff.h"
 1296              		.file 20 "lib/mpu/include/mpu6500_driver.h"
 1297              		.file 21 "lib/dma/include/dma.h"
 1298              		.file 22 "./../../firmware/GD32VF103_standard_peripheral/Include/gd32vf103_gpio.h"
 1299              		.file 23 "lib/mpu/include/gd32v_mpu6500_if.h"
 1300              		.file 24 "lib/systick/include/systick.h"
 1301              		.file 25 "./../../firmware/RISCV/drivers/n200_func.h"
 1302              		.file 26 "lib/queue/include/queue.h"
 1303              		.file 27 "./../../firmware/GD32VF103_standard_peripheral/Include/gd32vf103_eclic.h"
 1304              		.file 28 "c:\\users\\jesper\\documents\\ml_sommarjobb\\toolchain-gd32v-v201-win\\toolchain-gd32v-v
 1305              		.file 29 "lib/usbcdc/include/usb_delay.h"
 1306              		.file 30 "<built-in>"
 1307              		.file 31 "lib/fatfs/include/gd32v_tf_card_if.h"
 1308              		.file 32 "c:\\users\\jesper\\documents\\ml_sommarjobb\\toolchain-gd32v-v201-win\\toolchain-gd32v-v
GAS LISTING C:\Users\Jesper\AppData\Local\Temp\ccTMvnxl.s 			page 33

